(dp1
I0
V<eos>
p2
sI1
V\u7684
sI2
V\u4e00
sI3
V\u662f
sI4
V\u5728
sI5
V\u6709
sI6
V\u4e0d
sI7
V\u4e2d
sI8
V\u4e86
sI9
V\u5927
sI10
V\u56fd
sI11
V\u4eba
sI12
V\u4e3a
sI13
V\u5730
sI14
V\u4e1a
sI15
V\u8fd9
sI16
V\u4e0a
sI17
V\u4e2a
sI18
V\u5e02
sI19
V\u6211
sI20
V\u548c
sI21
V\u53d1
sI22
V\u4f1a
sI23
V\u5bf9
sI24
V\u884c
sI25
V\u6765
sI26
V\u51fa
sI27
V\u8981
sI28
V\u4ee5
sI29
V\u573a
sI30
V\u4ea7
sI31
V\u516c
sI32
V\u4eec
sI33
V\u80fd
sI34
V\u623f
sI35
V\u6210
sI36
V\u5230
sI37
V\u65f6
sI38
V\u7ecf
sI39
V\u4e5f
sI40
V\u8d44
sI41
V\u591a
sI42
V\u4e8e
sI43
V\u73b0
sI44
V\u53ef
sI45
V\u751f
sI46
V\u5bb6
sI47
V\u5f00
sI48
V\u540e
sI49
V\u4ed6
sI50
V\u533a
sI51
V\u65b9
sI52
V\u9ad8
sI53
V\u5c31
sI54
V\u7528
sI55
V\u524d
sI56
V\u7406
sI57
V\u4f5c
sI58
V\u4e0b
sI59
V\u4ef7
sI60
V\u4e3b
sI61
V\u65b0
sI62
V\u8005
sI63
V\u8fdb
sI64
V\u800c
sI65
V\u5c06
sI66
V\u53f8
sI67
V\u9762
sI68
V\u8fc7
sI69
V\u90fd
sI70
V\u529b
sI71
V\u672c
sI72
V\u91d1
sI73
V\u52a8
sI74
V\u90e8
sI75
V\u5f97
sI76
V\u5206
sI77
V\u81ea
sI78
V\u5546
sI79
V\u901a
sI80
V\u5b9a
sI81
V\u5e74
sI82
V\u4e0e
sI83
V\u54c1
sI84
V\u8fd8
sI85
V\u5efa
sI86
V\u6700
sI87
V\u91cd
sI88
V\u76ee
sI89
V\u5168
sI90
V\u5408
sI91
V\u4e4b
sI92
V\u5c0f
sI93
V\u5173
sI94
V\u5de5
sI95
V\u6240
sI96
V\u4f53
sI97
V\u5b9e
sI98
V\u5185
sI99
V\u5fc3
sI100
V\u7b49
sI101
V\u540c
sI102
V\u5176
sI103
V\u673a
sI104
V\u8bf4
sI105
V\u4f46
sI106
V\u5f88
sI107
V\u597d
sI108
V\u6bd4
sI109
V\u52a0
sI110
V\u957f
sI111
V\u5229
sI112
V\u5c55
sI113
V\u8f66
sI114
V\u5316
sI115
V\u671f
sI116
V\u6027
sI117
V\u5982
sI118
V\u56e0
sI119
V\u5ea6
sI120
V\u5929
sI121
V\u5916
sI122
V\u8868
sI123
V\u4e9b
sI124
V\u8bbe
sI125
V\u52a1
sI126
V\u6295
sI127
V\u5317
sI128
V\u80a1
sI129
V\u66f4
sI130
V\u4f4d
sI131
V\u63d0
sI132
V\u770b
sI133
V\u4fdd
sI134
V\u70b9
sI135
V\u653f
sI136
V\u7136
sI137
V\u5f53
sI138
V\u5df2
sI139
V\u95f4
sI140
V\u4ece
sI141
V\u6ca1
sI142
V\u4e09
sI143
V\u5e94
sI144
V\u6cd5
sI145
V\u6b21
sI146
V\u76f8
sI147
V\u5236
sI148
V\u7535
sI149
V\u60c5
sI150
V\u961f
sI151
V\u5165
sI152
V\u7ba1
sI153
V\u4ea4
sI154
V\u5e76
sI155
V\u5b66
sI156
V\u8fd0
sI157
V\u5b50
sI158
V\u4e8b
sI159
V\u57ce
sI160
V\u683c
sI161
V\u4f01
sI162
V\u79cd
sI163
V\u7403
sI164
V\u660e
sI165
V\u4e24
sI166
V\u624b
sI167
V\u4fe1
sI168
V\u53ca
sI169
V\u610f
sI170
V\u7f8e
sI171
V\u7740
sI172
V\u6d77
sI173
V\u57fa
sI174
V\u91cf
sI175
V\u6c11
sI176
V\u5458
sI177
V\u4eac
sI178
V\u4e1c
sI179
V\u6837
sI180
V\u6b63
sI181
V\u7279
sI182
V\u7ed9
sI183
V\u95ee
sI184
V\u9898
sI185
V\u65e5
sI186
V\u6b64
sI187
V\u8d77
sI188
V\u8ba1
sI189
V\u53d7
sI190
V\u89c4
sI191
V\u7531
sI192
V\u4f4f
sI193
V\u8d5b
sI194
V\u91cc
sI195
V\u6c34
sI196
V\u7269
sI197
V\u897f
sI198
V\u653e
sI199
V\u8c03
sI200
V\u9053
sI201
V\u5411
sI202
V\u5f0f
sI203
V\u6301
sI204
V\u65e0
sI205
V\u9879
sI206
V\u505a
sI207
V\u95e8
sI208
V\u7b2c
sI209
V\u4e48
sI210
V\u4f7f
sI211
V\u5f71
sI212
V\u5e38
sI213
V\u9996
sI214
V\u8def
sI215
V\u679c
sI216
V\u5f3a
sI217
V\u5e73
sI218
V\u793a
sI219
V\u8bb0
sI220
V\u8d39
sI221
V\u6d4e
sI222
V\u53bb
sI223
V\u96c6
sI224
V\u6587
sI225
V\u6570
sI226
V\u7f51
sI227
V\u5b89
sI228
V\u4f60
sI229
V\u540d
sI230
V\u8bc1
sI231
V\u8f83
sI232
V\u9700
sI233
V\u589e
sI234
V\u6574
sI235
V\u6536
sI236
V\u62a5
sI237
V\u6d3b
sI238
V\u4e8c
sI239
V\u7cfb
sI240
V\u8ba9
sI241
V\u5357
sI242
V\u4efb
sI243
V\u6c42
sI244
V\u8be5
sI245
V\u98ce
sI246
V\u8d2d
sI247
V\u8ba4
sI248
V\u603b
sI249
V\u5404
sI250
V\u975e
sI251
V\u7a0b
sI252
V\u4ee3
sI253
V\u5965
sI254
V\u63a5
sI255
V\u5e7f
sI256
V\u60f3
sI257
V\u578b
sI258
V\u88ab
sI259
V\u89c2
sI260
V\u5c11
sI261
V\u9645
sI262
V\u53ea
sI263
V\u539f
sI264
V\u5df1
sI265
V\u52bf
sI266
V\u6d88
sI267
V\u94f6
sI268
V\u7ed3
sI269
V\u534e
sI270
V\u90a3
sI271
V\u697c
sI272
V\u4f9b
sI273
V\u89e3
sI274
V\u8054
sI275
V\u73af
sI276
V\u6237
sI277
V\u9020
sI278
V\u636e
sI279
V\u7ec4
sI280
V\u522b
sI281
V\u53d8
sI282
V\u4eca
sI283
V\u7a7a
sI284
V\u793e
sI285
V\u8425
sI286
V\u8eab
sI287
V\u5148
sI288
V\u6218
sI289
V\u51b5
sI290
V\u56e2
sI291
V\u56db
sI292
V\u611f
sI293
V\u7eed
sI294
V\u6216
sI295
V\u56de
sI296
V\u9500
sI297
V\u4f4e
sI298
V\u5341
sI299
V\u7ebf
sI300
V\u670d
sI301
V\u6807
sI302
V\u8fd1
sI303
V\u552e
sI304
V\u5ba2
sI305
V\u7acb
sI306
V\u4f20
sI307
V\u5904
sI308
V\u6743
sI309
V\u6539
sI310
V\u9009
sI311
V\u76f4
sI312
V\u65af
sI313
V\u5e26
sI314
V\u707e
sI315
V\u8d28
sI316
V\u56ed
sI317
V\u8003
sI318
V\u8d8a
sI319
V\u5c40
sI320
V\u4e13
sI321
V\u754c
sI322
V\u518d
sI323
V\u6253
sI324
V\u5468
sI325
V\u6b3e
sI326
V\u6e90
sI327
V\u51e0
sI328
V\u5bfc
sI329
V\u672f
sI330
V\u79d1
sI331
V\u5c14
sI332
V\u54cd
sI333
V\u6e38
sI334
V\u4e16
sI335
V\u6d41
sI336
V\u4e70
sI337
V\u5f62
sI338
V\u5b8c
sI339
V\u51b3
sI340
V\u9650
sI341
V\u96be
sI342
V\u672a
sI343
V\u53f0
sI344
V\u53e3
sI345
V\u6cb9
sI346
V\u6b65
sI347
V\u6307
sI348
V\u671b
sI349
V\u5177
sI350
V\u663e
sI351
V\u6280
sI352
V\u5973
sI353
V\u63a8
sI354
V\u7edf
sI355
V\u503c
sI356
V\u571f
sI357
V\u606f
sI358
V\u6613
sI359
V\u7b56
sI360
V\u5c71
sI361
V\u53d6
sI362
V\u4ef6
sI363
V\u5212
sI364
V\u628a
sI365
V\u5e03
sI366
V\u5355
sI367
V\u5907
sI368
V\u544a
sI369
V\u8001
sI370
V\u9662
sI371
V\u51c6
sI372
V\u6784
sI373
V\u6c14
sI374
V\u5e9c
sI375
V\u9669
sI376
V\u8272
sI377
V\u76d8
sI378
V\u77e5
sI379
V\u8db3
sI380
V\u786e
sI381
V\u5c45
sI382
V\u8f6c
sI383
V\u901f
sI384
V\u4f18
sI385
V\u5347
sI386
V\u652f
sI387
V\u8fbe
sI388
V\u65bd
sI389
V\u6ce8
sI390
V\u8d23
sI391
V\u529e
sI392
V\u81f3
sI393
V\u666f
sI394
V\u89c6
sI395
V\u6548
sI396
V\u5feb
sI397
V\u9884
sI398
V\u7ea7
sI399
V\u4e9a
sI400
V\u9707
sI401
V\u53cd
sI402
V\u5934
sI403
V\u7387
sI404
V\u8282
sI405
V\u878d
sI406
V\u521b
sI407
V\u5f20
sI408
V\u5fb7
sI409
V\u724c
sI410
V\u8bdd
sI411
V\u58eb
sI412
V\u8d70
sI413
V\u6df1
sI414
V\u7f6e
sI415
V\u8bba
sI416
V\u5305
sI417
V\u5219
sI418
V\u59cb
sI419
V\u624d
sI420
V\u514b
sI421
V\u5883
sI422
V\u4ec0
sI423
V\u4f55
sI424
V\u70ed
sI425
V\u53c8
sI426
V\u7814
sI427
V\u9886
sI428
V\u5b83
sI429
V\u8bae
sI430
V\u91c7
sI431
V\u76ca
sI432
V\u5979
sI433
V\u533b
sI434
V\u5f15
sI435
V\u6bb5
sI436
V\u4f17
sI437
V\u6559
sI438
V\u6f14
sI439
V\u5bb9
sI440
V\u5149
sI441
V\u53c2
sI442
V\u5b58
sI443
V\u4e50
sI444
V\u7231
sI445
V\u64ad
sI446
V\u5dde
sI447
V\u5fc5
sI448
V\u519b
sI449
V\u706b
sI450
V\u4e07
sI451
V\u4e89
sI452
V\u63a7
sI453
V\u6bcf
sI454
V\u62c9
sI455
V\u6001
sI456
V\u968f
sI457
V\u6a21
sI458
V\u6761
sI459
V\u771f
sI460
V\u914d
sI461
V\u6c5f
sI462
V\u4e94
sI463
V\u79ef
sI464
V\u66f2
sI465
V\u6da8
sI466
V\u8d37
sI467
V\u88c5
sI468
V\u738b
sI469
V\u82b1
sI470
V\u59d4
sI471
V\u7cbe
sI472
V\u4e14
sI473
V\u592a
sI474
V\u6392
sI475
V\u77f3
sI476
V\u9a6c
sI477
V\u529f
sI478
V\u8c61
sI479
V\u6839
sI480
V\u65c5
sI481
V\u5238
sI482
V\u767e
sI483
V\u57df
sI484
V\u5e2e
sI485
V\u590d
sI486
V\u6599
sI487
V\u65ad
sI488
V\u4ec5
sI489
V\u7c7b
sI490
V\u89c9
sI491
V\u5e08
sI492
V\u79f0
sI493
V\u8bb8
sI494
V\u5c42
sI495
V\u6e05
sI496
V\u8fb9
sI497
V\u7b51
sI498
V\u9002
sI499
V\u72b6
sI500
V\u67e5
sI501
V\u5019
sI502
V\u6c7d
sI503
V\u81f4
sI504
V\u7a76
sI505
V\u5f80
sI506
V\u89c1
sI507
V\u627e
sI508
V\u5373
sI509
V\u6708
sI510
V\u7701
sI511
V\u7f57
sI512
V\u591f
sI513
V\u6848
sI514
V\u83b7
sI515
V\u4efd
sI516
V\u5e0c
sI517
V\u5931
sI518
V\u6797
sI519
V\u6781
sI520
V\u4fbf
sI521
V\u76d1
sI522
V\u964d
sI523
V\u9632
sI524
V\u8fde
sI525
V\u8d85
sI526
V\u5171
sI527
V\u8fdc
sI528
V\u534f
sI529
V\u4ecd
sI530
V\u7d20
sI531
V\u5143
sI532
V\u8d22
sI533
V\u5e97
sI534
V\u9664
sI535
V\u8d1f
sI536
V\u661f
sI537
V\u6b27
sI538
V\u7247
sI539
V\u52a9
sI540
V\u53cc
sI541
V\u5374
sI542
V\u8303
sI543
V\u9633
sI544
V\u8bc4
sI545
V\u5c3d
sI546
V\u7ad9
sI547
V\u5386
sI548
V\u836f
sI549
V\u538b
sI550
V\u53cb
sI551
V\u6ee1
sI552
V\u5e45
sI553
V\u7ef4
sI554
V\u6309
sI555
V\u5b85
sI556
V\u80b2
sI557
V\u7ee7
sI558
V\u6d32
sI559
V\u7d27
sI560
V\u7ec8
sI561
V\u6e2f
sI562
V\u534a
sI563
V\u8dcc
sI564
V\u8a00
sI565
V\u674e
sI566
V\u8d27
sI567
V\u5957
sI568
V\u62e9
sI569
V\u7167
sI570
V\u5426
sI571
V\u4ecb
sI572
V\u4f9d
sI573
V\u627f
sI574
V\u7ea6
sI575
V\u5356
sI576
V\u677f
sI577
V\u4e34
sI578
V\u7565
sI579
V\u9a8c
sI580
V\u4e25
sI581
V\u822a
sI582
V\u7ade
sI583
V\u843d
sI584
V\u867d
sI585
V\u62ec
sI586
V\u7968
sI587
V\u51cf
sI588
V\u4e3e
sI589
V\u8bf7
sI590
V\u62c5
sI591
V\u56fe
sI592
V\u7ea2
sI593
V\u50cf
sI594
V\u94b1
sI595
V\u4e49
sI596
V\u519c
sI597
V\u89d2
sI598
V\u62a4
sI599
V\u513f
sI600
V\u536b
sI601
V\u5ff5
sI602
V\u5bcc
sI603
V\u7b97
sI604
V\u7a33
sI605
V\u5b57
sI606
V\u77ed
sI607
V\u5ddd
sI608
V\u9f99
sI609
V\u4e66
sI610
V\u5fd7
sI611
V\u795e
sI612
V\u94c1
sI613
V\u6551
sI614
V\u9999
sI615
V\u6cbb
sI616
V\u79df
sI617
V\u767d
sI618
V\u7ec6
sI619
V\u5267
sI620
V\u4fee
sI621
V\u79bb
sI622
V\u56f4
sI623
V\u7fa4
sI624
V\u51fb
sI625
V\u75c5
sI626
V\u5145
sI627
V\u5174
sI628
V\u5e95
sI629
V\u6279
sI630
V\u666e
sI631
V\u6b4c
sI632
V\u6cb3
sI633
V\u6e56
sI634
V\u66fe
sI635
V\u5584
sI636
V\u521a
sI637
V\u8bc6
sI638
V\u5065
sI639
V\u9152
sI640
V\u6751
sI641
V\u82f1
sI642
V\u8bb2
sI643
V\u58f0
sI644
V\u5c4b
sI645
V\u9752
sI646
V\u5dee
sI647
V\u9ec4
sI648
V\u5170
sI649
V\u7ec3
sI650
V\u5531
sI651
V\u5c5e
sI652
V\u5757
sI653
V\u6ce2
sI654
V\u5747
sI655
V\u8f7b
sI656
V\u5361
sI657
V\u65e9
sI658
V\u601d
sI659
V\u72ec
sI660
V\u5df4
sI661
V\u80dc
sI662
V\u53f7
sI663
V\u7537
sI664
V\u8bd5
sI665
V\u773c
sI666
V\u9732
sI667
V\u505c
sI668
V\u526f
sI669
V\u6fc0
sI670
V\u7a81
sI671
V\u8651
sI672
V\u5217
sI673
V\u8bbf
sI674
V\u98df
sI675
V\u5f85
sI676
V\u8ddf
sI677
V\u6750
sI678
V\u5207
sI679
V\u798f
sI680
V\u592e
sI681
V\u804c
sI682
V\u7834
sI683
V\u5a92
sI684
V\u5218
sI685
V\u5e72
sI686
V\u98de
sI687
V\u535a
sI688
V\u989d
sI689
V\u8c08
sI690
V\u53e6
sI691
V\u5eb7
sI692
V\u8865
sI693
V\u7f3a
sI694
V\u5de8
sI695
V\u613f
sI696
V\u5f8b
sI697
V\u987b
sI698
V\u4f8b
sI699
V\u5c3c
sI700
V\u5343
sI701
V\u5b69
sI702
V\u53f2
sI703
V\u516d
sI704
V\u826f
sI705
V\u547d
sI706
V\u6258
sI707
V\u7eb3
sI708
V\u6838
sI709
V\u6628
sI710
V\u6821
sI711
V\u62cd
sI712
V\u9648
sI713
V\u8bc9
sI714
V\u4e4e
sI715
V\u751a
sI716
V\u73ed
sI717
V\u963f
sI718
V\u8857
sI719
V\u5b63
sI720
V\u6790
sI721
V\u7559
sI722
V\u94a2
sI723
V\u5ba4
sI724
V\u7edd
sI725
V\u8463
sI726
V\u5b9d
sI727
V\u514d
sI728
V\u62db
sI729
V\u5ba3
sI730
V\u5382
sI731
V\u5947
sI732
V\u600e
sI733
V\u4eb2
sI734
V\u4f24
sI735
V\u5199
sI736
V\u900f
sI737
V\u559c
sI738
V\u7eff
sI739
V\u6e29
sI740
V\u827a
sI741
V\u6b22
sI742
V\u6297
sI743
V\u4ee4
sI744
V\u53e4
sI745
V\u5e01
sI746
V\u592b
sI747
V\u7597
sI748
V\u4ed8
sI749
V\u5c1a
sI750
V\u6362
sI751
V\u7ec7
sI752
V\u9636
sI753
V\u7eaa
sI754
V\u4f3c
sI755
V\u9010
sI756
V\u95fb
sI757
V\u521d
sI758
V\u6d4b
sI759
V\u7a0e
sI760
V\u8f6e
sI761
V\u7f16
sI762
V\u5ba1
sI763
V\u6c47
sI764
V\u8f6f
sI765
V\u6b62
sI766
V\u5bc6
sI767
V\u7ee9
sI768
V\u5e2d
sI769
V\u516b
sI770
V\u62ff
sI771
V\u6025
sI772
V\u5668
sI773
V\u6267
sI774
V\u79fb
sI775
V\u9047
sI776
V\u7edc
sI777
V\u5956
sI778
V\u8bad
sI779
V\u8d8b
sI780
V\u9769
sI781
V\u7b7e
sI782
V\u67d0
sI783
V\u4e30
sI784
V\u635f
sI785
V\u5f69
sI786
V\u5371
sI787
V\u7eb7
sI788
V\u676f
sI789
V\u6da6
sI790
V\u517b
sI791
V\u5438
sI792
V\u7ecd
sI793
V\u4e92
sI794
V\u5f81
sI795
V\u6865
sI796
V\u575a
sI797
V\u7aef
sI798
V\u62e5
sI799
V\u8ff7
sI800
V\u6b66
sI801
V\u4e60
sI802
V\u80c0
sI803
V\u97f3
sI804
V\u5bb3
sI805
V\u4f30
sI806
V\u8bed
sI807
V\u969c
sI808
V\u5fae
sI809
V\u7840
sI810
V\u60a8
sI811
V\u7259
sI812
V\u4e3d
sI813
V\u5360
sI814
V\u7591
sI815
V\u653b
sI816
V\u5c4a
sI817
V\u9519
sI818
V\u7b80
sI819
V\u4e91
sI820
V\u5178
sI821
V\u5b98
sI822
V\u5417
sI823
V\u6325
sI824
V\u7533
sI825
V\u745e
sI826
V\u542c
sI827
V\u5224
sI828
V\u6545
sI829
V\u5473
sI830
V\u70ac
sI831
V\u80cc
sI832
V\u5b8f
sI833
V\u5047
sI834
V\u620f
sI835
V\u501f
sI836
V\u987a
sI837
V\u4fc3
sI838
V\u51a0
sI839
V\u68c0
sI840
V\u6e7e
sI841
V\u51b2
sI842
V\u9000
sI843
V\u63aa
sI844
V\u9986
sI845
V\u6625
sI846
V\u4eab
sI847
V\u65cf
sI848
V\u96c5
sI849
V\u5403
sI850
V\u5a01
sI851
V\u5462
sI852
V\u7c73
sI853
V\u5ead
sI854
V\u4e03
sI855
V\u677e
sI856
V\u9012
sI857
V\u5b81
sI858
V\u822c
sI859
V\u4f0a
sI860
V\u4f73
sI861
V\u54ea
sI862
V\u6269
sI863
V\u70c8
sI864
V\u9547
sI865
V\u8d38
sI866
V\u719f
sI867
V\u9646
sI868
V\u987e
sI869
V\u5e86
sI870
V\u4e5d
sI871
V\u9760
sI872
V\u8ffd
sI873
V\u76ae
sI874
V\u641c
sI875
V\u9001
sI876
V\u5370
sI877
V\u4eae
sI878
V\u5f39
sI879
V\u7164
sI880
V\u53bf
sI881
V\u8ff0
sI882
V\u5ea7
sI883
V\u767b
sI884
V\u5c24
sI885
V\u671d
sI886
V\u5f55
sI887
V\u64cd
sI888
V\u96f7
sI889
V\u96e8
sI890
V\u523b
sI891
V\u56f0
sI892
V\u5733
sI893
V\u6b7b
sI894
V\u5f02
sI895
V\u6c99
sI896
V\u8baf
sI897
V\u8c01
sI898
V\u665a
sI899
V\u907f
sI900
V\u6863
sI901
V\u8f93
sI902
V\u50a8
sI903
V\u8b66
sI904
V\u7d22
sI905
V\u4f59
sI906
V\u9891
sI907
V\u8c22
sI908
V\u82cf
sI909
V\u88c1
sI910
V\u6e10
sI911
V\u7530
sI912
V\u79c0
sI913
V\u5b88
sI914
V\u5ef6
sI915
V\u5c9b
sI916
V\u8fce
sI917
V\u8457
sI918
V\u5885
sI919
V\u9488
sI920
V\u6c49
sI921
V\u8bfa
sI922
V\u7f29
sI923
V\u670b
sI924
V\u80af
sI925
V\u5a5a
sI926
V\u6768
sI927
V\u6c38
sI928
V\u76d6
sI929
V\u503a
sI930
V\u7248
sI931
V\u4e45
sI932
V\u96f6
sI933
V\u8c6a
sI934
V\u952e
sI935
V\u76db
sI936
V\u7efc
sI937
V\u6982
sI938
V\u5427
sI939
V\u8840
sI940
V\u8d35
sI941
V\u9876
sI942
V\u4f11
sI943
V\u5012
sI944
V\u590f
sI945
V\u5f31
sI946
V\u7f13
sI947
V\u60e0
sI948
V\u8fdd
sI949
V\u821e
sI950
V\u5385
sI951
V\u5bdf
sI952
V\u675f
sI953
V\u8ba2
sI954
V\u8f91
sI955
V\u65e2
sI956
V\u8fc5
sI957
V\u8ba8
sI958
V\u9ed1
sI959
V\u5609
sI960
V\u9635
sI961
V\u9644
sI962
V\u4e88
sI963
V\u5cf0
sI964
V\u6620
sI965
V\u5854
sI966
V\u53eb
sI967
V\u97e9
sI968
V\u542f
sI969
V\u6d0b
sI970
V\u51ef
sI971
V\u5348
sI972
V\u5b9c
sI973
V\u5e8f
sI974
V\u8dd1
sI975
V\u8ddd
sI976
V\u79c1
sI977
V\u57f9
sI978
V\u753b
sI979
V\u6cf0
sI980
V\u6162
sI981
V\u62b5
sI982
V\u5c04
sI983
V\u5bfb
sI984
V\u667a
sI985
V\u9759
sI986
V\u6bcd
sI987
V\u52b3
sI988
V\u575b
sI989
V\u5e55
sI990
V\u7075
sI991
V\u7b11
sI992
V\u6728
sI993
V\u85cf
sI994
V\u6bdb
sI995
V\u76c8
sI996
V\u68a6
sI997
V\u8bfb
sI998
V\u8363
sI999
V\u8be2
sI1000
V\u4e61
sI1001
V\u5f52
sI1002
V\u8d25
sI1003
V\u65d7
sI1004
V\u591c
sI1005
V\u904d
sI1006
V\u56fa
sI1007
V\u7b14
sI1008
V\u91ca
sI1009
V\u8be6
sI1010
V\u66b4
sI1011
V\u5e84
sI1012
V\u63a2
sI1013
V\u5175
sI1014
V\u77ff
sI1015
V\u5723
sI1016
V\u9057
sI1017
V\u63f4
sI1018
V\u6311
sI1019
V\u8377
sI1020
V\u6062
sI1021
V\u6d3e
sI1022
V\u6444
sI1023
V\u5708
sI1024
V\u72d0
sI1025
V\u6350
sI1026
V\u906d
sI1027
V\u4f1f
sI1028
V\u4fc4
sI1029
V\u60ca
sI1030
V\u8d34
sI1031
V\u8861
sI1032
V\u8349
sI1033
V\u7126
sI1034
V\u811a
sI1035
V\u6f6e
sI1036
V\u9f50
sI1037
V\u5e78
sI1038
V\u725b
sI1039
V\u7adf
sI1040
V\u82e6
sI1041
V\u950b
sI1042
V\u5750
sI1043
V\u6388
sI1044
V\u65e7
sI1045
V\u6682
sI1046
V\u732e
sI1047
V\u8fc1
sI1048
V\u6653
sI1049
V\u6f5c
sI1050
V\u8d62
sI1051
V\u5851
sI1052
V\u5bbd
sI1053
V\u7b79
sI1054
V\u8111
sI1055
V\u5de6
sI1056
V\u6d89
sI1057
V\u7ae0
sI1058
V\u793c
sI1059
V\u6811
sI1060
V\u8fea
sI1061
V\u547c
sI1062
V\u7a7f
sI1063
V\u9970
sI1064
V\u68ee
sI1065
V\u5cb8
sI1066
V\u7981
sI1067
V\u62c6
sI1068
V\u6742
sI1069
V\u52aa
sI1070
V\u51b7
sI1071
V\u6d25
sI1072
V\u7b26
sI1073
V\u7b54
sI1074
V\u8863
sI1075
V\u52b1
sI1076
V\u6563
sI1077
V\u542b
sI1078
V\u62a2
sI1079
V\u6bd5
sI1080
V\u585e
sI1081
V\u7389
sI1082
V\u5e93
sI1083
V\u8bef
sI1084
V\u5b59
sI1085
V\u8428
sI1086
V\u6d6a
sI1087
V\u805a
sI1088
V\u5f90
sI1089
V\u67d3
sI1090
V\u9014
sI1091
V\u9910
sI1092
V\u53f3
sI1093
V\u84dd
sI1094
V\u5448
sI1095
V\u7236
sI1096
V\u8f86
sI1097
V\u96ea
sI1098
V\u539a
sI1099
V\u593a
sI1100
V\u60a3
sI1101
V\u6cbf
sI1102
V\u54c8
sI1103
V\u507f
sI1104
V\u82e5
sI1105
V\u6298
sI1106
V\u63e1
sI1107
V\u9f13
sI1108
V\u5899
sI1109
V\u5434
sI1110
V\u5bd3
sI1111
V\u53e5
sI1112
V\u626c
sI1113
V\u6740
sI1114
V\u96c4
sI1115
V\u504f
sI1116
V\u4fa7
sI1117
V\u9c9c
sI1118
V\u4e58
sI1119
V\u574f
sI1120
V\u59d3
sI1121
V\u8212
sI1122
V\u5bbe
sI1123
V\u5409
sI1124
V\u6bd2
sI1125
V\u4f34
sI1126
V\u6377
sI1127
V\u76df
sI1128
V\u8033
sI1129
V\u67b6
sI1130
V\u6089
sI1131
V\u65e6
sI1132
V\u864e
sI1133
V\u6000
sI1134
V\u6fb3
sI1135
V\u996d
sI1136
V\u66ff
sI1137
V\u80e1
sI1138
V\u73e0
sI1139
V\u4e4f
sI1140
V\u53a6
sI1141
V\u7206
sI1142
V\u75db
sI1143
V\u8bda
sI1144
V\u8dc3
sI1145
V\u7801
sI1146
V\u7e41
sI1147
V\u6885
sI1148
V\u79d8
sI1149
V\u515a
sI1150
V\u7ae5
sI1151
V\u7a97
sI1152
V\u8c13
sI1153
V\u95f2
sI1154
V\u73a9
sI1155
V\u51c0
sI1156
V\u4eea
sI1157
V\u5c01
sI1158
V\u6015
sI1159
V\u6302
sI1160
V\u7763
sI1161
V\u6389
sI1162
V\u8da3
sI1163
V\u6597
sI1164
V\u949f
sI1165
V\u6770
sI1166
V\u8d75
sI1167
V\u90d1
sI1168
V\u7092
sI1169
V\u7d2f
sI1170
V\u888b
sI1171
V\u9a7e
sI1172
V\u8ff9
sI1173
V\u80a4
sI1174
V\u7cae
sI1175
V\u71c3
sI1176
V\u7eb8
sI1177
V\u5e05
sI1178
V\u676d
sI1179
V\u987f
sI1180
V\u996e
sI1181
V\u6ed1
sI1182
V\u83b1
sI1183
V\u89e6
sI1184
V\u5510
sI1185
V\u8df3
sI1186
V\u9c81
sI1187
V\u5b87
sI1188
V\u6717
sI1189
V\u6050
sI1190
V\u5b97
sI1191
V\u695a
sI1192
V\u6d01
sI1193
V\u52d2
sI1194
V\u638c
sI1195
V\u9526
sI1196
V\u7eaf
sI1197
V\u94fa
sI1198
V\u4f26
sI1199
V\u6d17
sI1200
V\u8f7d
sI1201
V\u94fe
sI1202
V\u6e20
sI1203
V\u6ce1
sI1204
V\u6469
sI1205
V\u51b0
sI1206
V\u675c
sI1207
V\u6c89
sI1208
V\u6c9f
sI1209
V\u7f72
sI1210
V\u8089
sI1211
V\u4e71
sI1212
V\u5a31
sI1213
V\u8131
sI1214
V\u83dc
sI1215
V\u8d76
sI1216
V\u4e01
sI1217
V\u6b8a
sI1218
V\u6881
sI1219
V\u8361
sI1220
V\u52c7
sI1221
V\u9192
sI1222
V\u70df
sI1223
V\u523a
sI1224
V\u53ec
sI1225
V\u4f19
sI1226
V\u4ff1
sI1227
V\u6d1b
sI1228
V\u8d1d
sI1229
V\u642d
sI1230
V\u552f
sI1231
V\u5988
sI1232
V\u8c37
sI1233
V\u786c
sI1234
V\u8d21
sI1235
V\u52b2
sI1236
V\u5802
sI1237
V\u6cc9
sI1238
V\u8d26
sI1239
V\u52df
sI1240
V\u5f03
sI1241
V\u8de8
sI1242
V\u660c
sI1243
V\u6df7
sI1244
V\u9690
sI1245
V\u82d1
sI1246
V\u865a
sI1247
V\u5fe7
sI1248
V\u60ef
sI1249
V\u6de1
sI1250
V\u70ad
sI1251
V\u4ed3
sI1252
V\u706f
sI1253
V\u90bb
sI1254
V\u91ce
sI1255
V\u6293
sI1256
V\u63ed
sI1257
V\u8bfe
sI1258
V\u654f
sI1259
V\u9a76
sI1260
V\u66fc
sI1261
V\u7bee
sI1262
V\u8138
sI1263
V\u6076
sI1264
V\u4ea6
sI1265
V\u6696
sI1266
V\u6c61
sI1267
V\u54e5
sI1268
V\u4ebf
sI1269
V\u6cfd
sI1270
V\u4e39
sI1271
V\u641e
sI1272
V\u8461
sI1273
V\u8f89
sI1274
V\u90ed
sI1275
V\u6db2
sI1276
V\u54a8
sI1277
V\u8017
sI1278
V\u5377
sI1279
V\u6731
sI1280
V\u6cdb
sI1281
V\u62d3
sI1282
V\u7f18
sI1283
V\u6562
sI1284
V\u76fe
sI1285
V\u59c6
sI1286
V\u68af
sI1287
V\u594b
sI1288
V\u59d0
sI1289
V\u75be
sI1290
V\u4e1d
sI1291
V\u4f0d
sI1292
V\u8d54
sI1293
V\u5740
sI1294
V\u8404
sI1295
V\u8bcd
sI1296
V\u517c
sI1297
V\u6f2b
sI1298
V\u6491
sI1299
V\u83f2
sI1300
V\u9677
sI1301
V\u9ed8
sI1302
V\u83ab
sI1303
V\u6d59
sI1304
V\u7532
sI1305
V\u95ed
sI1306
V\u4e8f
sI1307
V\u632f
sI1308
V\u72af
sI1309
V\u8f68
sI1310
V\u9634
sI1311
V\u6c1b
sI1312
V\u8bf8
sI1313
V\u8d5e
sI1314
V\u8d74
sI1315
V\u4f2f
sI1316
V\u5976
sI1317
V\u62bc
sI1318
V\u9694
sI1319
V\u5c3e
sI1320
V\u8239
sI1321
V\u9c7c
sI1322
V\u9ea6
sI1323
V\u5f84
sI1324
V\u6c88
sI1325
V\u6069
sI1326
V\u5761
sI1327
V\u7f5a
sI1328
V\u51ed
sI1329
V\u614e
sI1330
V\u9274
sI1331
V\u5c0a
sI1332
V\u8feb
sI1333
V\u690d
sI1334
V\u6c76
sI1335
V\u9686
sI1336
V\u75c7
sI1337
V\u7687
sI1338
V\u5f7b
sI1339
V\u6291
sI1340
V\u62ab
sI1341
V\u6d2a
sI1342
V\u9501
sI1343
V\u72c2
sI1344
V\u90ca
sI1345
V\u9f84
sI1346
V\u6668
sI1347
V\u6b23
sI1348
V\u6234
sI1349
V\u62df
sI1350
V\u6c60
sI1351
V\u6ee8
sI1352
V\u7ffb
sI1353
V\u6cab
sI1354
V\u62b1
sI1355
V\u6b8b
sI1356
V\u8499
sI1357
V\u5bab
sI1358
V\u8350
sI1359
V\u7fd4
sI1360
V\u9aa8
sI1361
V\u503e
sI1362
V\u74e6
sI1363
V\u6446
sI1364
V\u4f5b
sI1365
V\u672b
sI1366
V\u9e4f
sI1367
V\u5242
sI1368
V\u500d
sI1369
V\u795d
sI1370
V\u718a
sI1371
V\u7ebd
sI1372
V\u7545
sI1373
V\u955c
sI1374
V\u6052
sI1375
V\u6697
sI1376
V\u6b32
sI1377
V\u8a89
sI1378
V\u9080
sI1379
V\u963b
sI1380
V\u53f6
sI1381
V\u8d41
sI1382
V\u6f58
sI1383
V\u77db
sI1384
V\u8fdf
sI1385
V\u5de7
sI1386
V\u8d60
sI1387
V\u5766
sI1388
V\u90ae
sI1389
V\u5f1f
sI1390
V\u65fa
sI1391
V\u6070
sI1392
V\u81a8
sI1393
V\u79cb
sI1394
V\u89c8
sI1395
V\u5fd8
sI1396
V\u4ea1
sI1397
V\u5fd9
sI1398
V\u6263
sI1399
V\u6dd8
sI1400
V\u75ab
sI1401
V\u5e8a
sI1402
V\u8bd7
sI1403
V\u6ce5
sI1404
V\u8c10
sI1405
V\u9a7b
sI1406
V\u59bb
sI1407
V\u6caa
sI1408
V\u8d56
sI1409
V\u5fe0
sI1410
V\u6d53
sI1411
V\u5987
sI1412
V\u756a
sI1413
V\u8d2f
sI1414
V\u7d2b
sI1415
V\u9887
sI1416
V\u5ec9
sI1417
V\u62bd
sI1418
V\u6167
sI1419
V\u7bb1
sI1420
V\u6676
sI1421
V\u5339
sI1422
V\u8336
sI1423
V\u5954
sI1424
V\u5e7c
sI1425
V\u5fc6
sI1426
V\u51e1
sI1427
V\u5706
sI1428
V\u65c1
sI1429
V\u633a
sI1430
V\u6606
sI1431
V\u4f69
sI1432
V\u80a5
sI1433
V\u554a
sI1434
V\u629b
sI1435
V\u6a2a
sI1436
V\u62d6
sI1437
V\u518c
sI1438
V\u586b
sI1439
V\u6270
sI1440
V\u6beb
sI1441
V\u7eea
sI1442
V\u808c
sI1443
V\u8c28
sI1444
V\u4fca
sI1445
V\u51af
sI1446
V\u9ebb
sI1447
V\u6148
sI1448
V\u8d5a
sI1449
V\u5269
sI1450
V\u5a1c
sI1451
V\u699c
sI1452
V\u7ed5
sI1453
V\u58c1
sI1454
V\u7965
sI1455
V\u62fc
sI1456
V\u7c89
sI1457
V\u604b
sI1458
V\u68b0
sI1459
V\u6d66
sI1460
V\u70bc
sI1461
V\u7761
sI1462
V\u51e4
sI1463
V\u5e9f
sI1464
V\u680b
sI1465
V\u5faa
sI1466
V\u60b2
sI1467
V\u62d2
sI1468
V\u708e
sI1469
V\u8270
sI1470
V\u8482
sI1471
V\u8fd4
sI1472
V\u6e21
sI1473
V\u7ea0
sI1474
V\u57c3
sI1475
V\u8986
sI1476
V\u978b
sI1477
V\u5c1d
sI1478
V\u7518
sI1479
V\u7f34
sI1480
V\u9178
sI1481
V\u642c
sI1482
V\u731b
sI1483
V\u7cd6
sI1484
V\u5bff
sI1485
V\u9a70
sI1486
V\u5830
sI1487
V\u5ffd
sI1488
V\u80de
sI1489
V\u73cd
sI1490
V\u520a
sI1491
V\u559d
sI1492
V\u643a
sI1493
V\u9006
sI1494
V\u4e73
sI1495
V\u788d
sI1496
V\u7a00
sI1497
V\u95f9
sI1498
V\u817e
sI1499
V\u809d
sI1500
V\u52e4
sI1501
V\u5f17
sI1502
V\u8058
sI1503
V\u5b8b
sI1504
V\u88c2
sI1505
V\u60ac
sI1506
V\u624e
sI1507
V\u58ee
sI1508
V\u6c70
sI1509
V\u51ac
sI1510
V\u59da
sI1511
V\u68d2
sI1512
V\u8328
sI1513
V\u5a03
sI1514
V\u6dfb
sI1515
V\u71d5
sI1516
V\u7956
sI1517
V\u7a0d
sI1518
V\u820d
sI1519
V\u82b3
sI1520
V\u86cb
sI1521
V\u602a
sI1522
V\u5d07
sI1523
V\u6d6e
sI1524
V\u5999
sI1525
V\u8f7f
sI1526
V\u626e
sI1527
V\u6d8c
sI1528
V\u732b
sI1529
V\u594f
sI1530
V\u9510
sI1531
V\u4fd7
sI1532
V\u67d4
sI1533
V\u6db5
sI1534
V\u7f6a
sI1535
V\u90a6
sI1536
V\u5141
sI1537
V\u53a8
sI1538
V\u6d9b
sI1539
V\u4eff
sI1540
V\u5367
sI1541
V\u622a
sI1542
V\u656c
sI1543
V\u6842
sI1544
V\u7c4d
sI1545
V\u4fb5
sI1546
V\u7ef5
sI1547
V\u8000
sI1548
V\u8010
sI1549
V\u5076
sI1550
V\u8170
sI1551
V\u817f
sI1552
V\u8fc8
sI1553
V\u67f3
sI1554
V\u8584
sI1555
V\u8c0b
sI1556
V\u5c81
sI1557
V\u75b2
sI1558
V\u8d4f
sI1559
V\u5251
sI1560
V\u6b20
sI1561
V\u84c4
sI1562
V\u989c
sI1563
V\u5951
sI1564
V\u62dc
sI1565
V\u8d6b
sI1566
V\u9003
sI1567
V\u4ec1
sI1568
V\u541b
sI1569
V\u5986
sI1570
V\u664b
sI1571
V\u9605
sI1572
V\u5c65
sI1573
V\u5e15
sI1574
V\u838e
sI1575
V\u8c8c
sI1576
V\u60a6
sI1577
V\u7238
sI1578
V\u7af9
sI1579
V\u80c1
sI1580
V\u6d1e
sI1581
V\u70e6
sI1582
V\u5200
sI1583
V\u6500
sI1584
V\u6670
sI1585
V\u64a4
sI1586
V\u6e7f
sI1587
V\u78b0
sI1588
V\u78e8
sI1589
V\u9614
sI1590
V\u4e95
sI1591
V\u6321
sI1592
V\u8273
sI1593
V\u8c46
sI1594
V\u9ece
sI1595
V\u5b55
sI1596
V\u6276
sI1597
V\u9881
sI1598
V\u59b9
sI1599
V\u5c97
sI1600
V\u6316
sI1601
V\u8bca
sI1602
V\u5021
sI1603
V\u60dc
sI1604
V\u70e7
sI1605
V\u764c
sI1606
V\u8f9b
sI1607
V\u4f10
sI1608
V\u5bfa
sI1609
V\u6dc0
sI1610
V\u79e6
sI1611
V\u8f9e
sI1612
V\u4e4c
sI1613
V\u80f6
sI1614
V\u9065
sI1615
V\u5144
sI1616
V\u5192
sI1617
V\u654c
sI1618
V\u6c64
sI1619
V\u94dc
sI1620
V\u6108
sI1621
V\u7275
sI1622
V\u80c6
sI1623
V\u4e59
sI1624
V\u9e1f
sI1625
V\u584c
sI1626
V\u6447
sI1627
V\u7434
sI1628
V\u8f85
sI1629
V\u4ed4
sI1630
V\u5e10
sI1631
V\u7f8a
sI1632
V\u9875
sI1633
V\u74f6
sI1634
V\u4f38
sI1635
V\u67f1
sI1636
V\u706d
sI1637
V\u9b4f
sI1638
V\u6324
sI1639
V\u6bc1
sI1640
V\u73bb
sI1641
V\u9a71
sI1642
V\u9e21
sI1643
V\u5a18
sI1644
V\u73b2
sI1645
V\u75af
sI1646
V\u4e43
sI1647
V\u7eb5
sI1648
V\u649e
sI1649
V\u65e8
sI1650
V\u6746
sI1651
V\u6c83
sI1652
V\u7433
sI1653
V\u7bc7
sI1654
V\u658c
sI1655
V\u7483
sI1656
V\u6cf3
sI1657
V\u80ce
sI1658
V\u827e
sI1659
V\u5c16
sI1660
V\u8df5
sI1661
V\u9676
sI1662
V\u6208
sI1663
V\u6cea
sI1664
V\u62d4
sI1665
V\u4e54
sI1666
V\u5b64
sI1667
V\u62e8
sI1668
V\u739b
sI1669
V\u8e22
sI1670
V\u5c4f
sI1671
V\u8109
sI1672
V\u5bbf
sI1673
V\u5fa1
sI1674
V\u9e3f
sI1675
V\u5949
sI1676
V\u6f02
sI1677
V\u85aa
sI1678
V\u6398
sI1679
V\u82d7
sI1680
V\u51cc
sI1681
V\u88d5
sI1682
V\u52a3
sI1683
V\u582a
sI1684
V\u5e9e
sI1685
V\u61c2
sI1686
V\u8bf1
sI1687
V\u90c1
sI1688
V\u8d3e
sI1689
V\u5634
sI1690
V\u68cb
sI1691
V\u732a
sI1692
V\u751c
sI1693
V\u7816
sI1694
V\u7a46
sI1695
V\u9a97
sI1696
V\u5237
sI1697
V\u5362
sI1698
V\u5bc4
sI1699
V\u5c3a
sI1700
V\u66f9
sI1701
V\u8d2c
sI1702
V\u5b54
sI1703
V\u5e1d
sI1704
V\u63cf
sI1705
V\u6d82
sI1706
V\u9655
sI1707
V\u5ce1
sI1708
V\u6212
sI1709
V\u8102
sI1710
V\u8679
sI1711
V\u8d2b
sI1712
V\u51c9
sI1713
V\u59ff
sI1714
V\u6905
sI1715
V\u9075
sI1716
V\u644a
sI1717
V\u6bc5
sI1718
V\u804a
sI1719
V\u970d
sI1720
V\u5151
sI1721
V\u51dd
sI1722
V\u5948
sI1723
V\u5c61
sI1724
V\u67f4
sI1725
V\u680f
sI1726
V\u775b
sI1727
V\u78a7
sI1728
V\u5439
sI1729
V\u6d69
sI1730
V\u6eaa
sI1731
V\u7c97
sI1732
V\u7eba
sI1733
V\u8083
sI1734
V\u8179
sI1735
V\u8e2a
sI1736
V\u8fbd
sI1737
V\u5e7b
sI1738
V\u5f7c
sI1739
V\u60e8
sI1740
V\u4f0f
sI1741
V\u6602
sI1742
V\u819c
sI1743
V\u95ea
sI1744
V\u5a46
sI1745
V\u6170
sI1746
V\u6f0f
sI1747
V\u8302
sI1748
V\u9038
sI1749
V\u5353
sI1750
V\u76d0
sI1751
V\u5272
sI1752
V\u5ca9
sI1753
V\u62ac
sI1754
V\u76f2
sI1755
V\u9b45
sI1756
V\u5077
sI1757
V\u58a8
sI1758
V\u6478
sI1759
V\u65cb
sI1760
V\u6ede
sI1761
V\u814a
sI1762
V\u82ac
sI1763
V\u5821
sI1764
V\u6021
sI1765
V\u67cf
sI1766
V\u6ee9
sI1767
V\u5f6d
sI1768
V\u80f8
sI1769
V\u9177
sI1770
V\u5bd2
sI1771
V\u5de1
sI1772
V\u632b
sI1773
V\u6eda
sI1774
V\u848b
sI1775
V\u94dd
sI1776
V\u5389
sI1777
V\u5783
sI1778
V\u5f25
sI1779
V\u626d
sI1780
V\u8096
sI1781
V\u8870
sI1782
V\u98d8
sI1783
V\u9971
sI1784
V\u573e
sI1785
V\u83b2
sI1786
V\u83cc
sI1787
V\u900a
sI1788
V\u4fa8
sI1789
V\u5fcd
sI1790
V\u6028
sI1791
V\u60a0
sI1792
V\u6367
sI1793
V\u8f88
sI1794
V\u5179
sI1795
V\u53a2
sI1796
V\u60d1
sI1797
V\u7891
sI1798
V\u810f
sI1799
V\u9093
sI1800
V\u4e08
sI1801
V\u5415
sI1802
V\u7070
sI1803
V\u72b9
sI1804
V\u8e0f
sI1805
V\u903c
sI1806
V\u966a
sI1807
V\u9b54
sI1808
V\u9f0e
sI1809
V\u80a9
sI1810
V\u8150
sI1811
V\u8521
sI1812
V\u94ed
sI1813
V\u53f9
sI1814
V\u5784
sI1815
V\u6566
sI1816
V\u6843
sI1817
V\u758f
sI1818
V\u7a77
sI1819
V\u8d64
sI1820
V\u575d
sI1821
V\u5c18
sI1822
V\u6ecb
sI1823
V\u7262
sI1824
V\u7a3f
sI1825
V\u5f04
sI1826
V\u5fbd
sI1827
V\u6846
sI1828
V\u6cc4
sI1829
V\u7fe0
sI1830
V\u8c0a
sI1831
V\u4ed9
sI1832
V\u5401
sI1833
V\u59d1
sI1834
V\u626b
sI1835
V\u63d2
sI1836
V\u7bf7
sI1837
V\u8230
sI1838
V\u8f74
sI1839
V\u5c3f
sI1840
V\u9896
sI1841
V\u7bad
sI1842
V\u8877
sI1843
V\u558a
sI1844
V\u55b7
sI1845
V\u6012
sI1846
V\u9888
sI1847
V\u82f9
sI1848
V\u50b2
sI1849
V\u5cfb
sI1850
V\u839e
sI1851
V\u5764
sI1852
V\u5806
sI1853
V\u5835
sI1854
V\u5acc
sI1855
V\u6c0f
sI1856
V\u6ed5
sI1857
V\u52c3
sI1858
V\u5cad
sI1859
V\u5e7d
sI1860
V\u5f79
sI1861
V\u61be
sI1862
V\u8d4b
sI1863
V\u51f8
sI1864
V\u59fb
sI1865
V\u5b5f
sI1866
V\u614c
sI1867
V\u70b8
sI1868
V\u90ce
sI1869
V\u4e22
sI1870
V\u54ed
sI1871
V\u5be8
sI1872
V\u62f3
sI1873
V\u6851
sI1874
V\u70c2
sI1875
V\u8389
sI1876
V\u64c5
sI1877
V\u76d7
sI1878
V\u9022
sI1879
V\u5962
sI1880
V\u6e34
sI1881
V\u6e58
sI1882
V\u714c
sI1883
V\u79e9
sI1884
V\u7ed8
sI1885
V\u80c3
sI1886
V\u574a
sI1887
V\u659c
sI1888
V\u6d45
sI1889
V\u6d74
sI1890
V\u7586
sI1891
V\u7ea4
sI1892
V\u94bb
sI1893
V\u9601
sI1894
V\u5e06
sI1895
V\u6084
sI1896
V\u6c27
sI1897
V\u96d5
sI1898
V\u6734
sI1899
V\u69db
sI1900
V\u7686
sI1901
V\u7eb2
sI1902
V\u57cb
sI1903
V\u5c79
sI1904
V\u8d3a
sI1905
V\u54b1
sI1906
V\u65ed
sI1907
V\u6691
sI1908
V\u67aa
sI1909
V\u6c6a
sI1910
V\u731c
sI1911
V\u7750
sI1912
V\u8881
sI1913
V\u8bde
sI1914
V\u7709
sI1915
V\u5d1b
sI1916
V\u684c
sI1917
V\u7089
sI1918
V\u75bc
sI1919
V\u76fc
sI1920
V\u80a0
sI1921
V\u5c48
sI1922
V\u5cb3
sI1923
V\u6572
sI1924
V\u77ac
sI1925
V\u9675
sI1926
V\u56ca
sI1927
V\u5ac1
sI1928
V\u7ece
sI1929
V\u7f55
sI1930
V\u80bf
sI1931
V\u821f
sI1932
V\u971e
sI1933
V\u5858
sI1934
V\u64e6
sI1935
V\u67ef
sI1936
V\u6f6d
sI1937
V\u70ae
sI1938
V\u4e27
sI1939
V\u806a
sI1940
V\u82af
sI1941
V\u5938
sI1942
V\u59dc
sI1943
V\u5bf8
sI1944
V\u6c57
sI1945
V\u74dc
sI1946
V\u8bbc
sI1947
V\u7cca
sI1948
V\u8015
sI1949
V\u8106
sI1950
V\u840e
sI1951
V\u88d9
sI1952
V\u9a91
sI1953
V\u5782
sI1954
V\u5eca
sI1955
V\u67dc
sI1956
V\u72d7
sI1957
V\u7ffc
sI1958
V\u9897
sI1959
V\u51f0
sI1960
V\u6ea2
sI1961
V\u88ad
sI1962
V\u8d48
sI1963
V\u95f7
sI1964
V\u99a8
sI1965
V\u51bb
sI1966
V\u788e
sI1967
V\u8352
sI1968
V\u8f9f
sI1969
V\u9e23
sI1970
V\u59a5
sI1971
V\u6ef4
sI1972
V\u871c
sI1973
V\u5146
sI1974
V\u58f3
sI1975
V\u5c2c
sI1976
V\u60df
sI1977
V\u6daf
sI1978
V\u8c2d
sI1979
V\u97e6
sI1980
V\u576a
sI1981
V\u5c34
sI1982
V\u6591
sI1983
V\u68c9
sI1984
V\u6b67
sI1985
V\u7f1d
sI1986
V\u8d24
sI1987
V\u9738
sI1988
V\u4ead
sI1989
V\u540a
sI1990
V\u5564
sI1991
V\u5f2f
sI1992
V\u7eb9
sI1993
V\u96fe
sI1994
V\u98d9
sI1995
V\u5496
sI1996
V\u54f2
sI1997
V\u8427
sI1998
V\u8e48
sI1999
V\u8f70
sI2000
V\u62e6
sI2001
V\u6380
sI2002
V\u723d
sI2003
V\u7cd5
sI2004
V\u8574
sI2005
V\u9988
sI2006
V\u4faf
sI2007
V\u5bb4
sI2008
V\u9505
sI2009
V\u9521
sI2010
V\u5561
sI2011
V\u574e
sI2012
V\u59ae
sI2013
V\u5e3d
sI2014
V\u5ef7
sI2015
V\u62d0
sI2016
V\u7267
sI2017
V\u817a
sI2018
V\u946b
sI2019
V\u9a84
sI2020
V\u5d29
sI2021
V\u5e99
sI2022
V\u63a9
sI2023
V\u655e
sI2024
V\u9b42
sI2025
V\u566a
sI2026
V\u589f
sI2027
V\u916c
sI2028
V\u9e7f
sI2029
V\u65a5
sI2030
V\u7fbd
sI2031
V\u8036
sI2032
V\u854a
sI2033
V\u4e32
sI2034
V\u59a8
sI2035
V\u6e83
sI2036
V\u7b3c
sI2037
V\u8d4c
sI2038
V\u95ef
sI2039
V\u5de2
sI2040
V\u5fcc
sI2041
V\u6735
sI2042
V\u67a2
sI2043
V\u6bbf
sI2044
V\u7c92
sI2045
V\u4ea8
sI2046
V\u6251
sI2047
V\u7a84
sI2048
V\u7cbd
sI2049
V\u5bc2
sI2050
V\u6323
sI2051
V\u80ba
sI2052
V\u829d
sI2053
V\u857e
sI2054
V\u9189
sI2055
V\u9b3c
sI2056
V\u4fe9
sI2057
V\u722c
sI2058
V\u884d
sI2059
V\u8bd1
sI2060
V\u917f
sI2061
V\u4e52
sI2062
V\u524a
sI2063
V\u5960
sI2064
V\u6458
sI2065
V\u6652
sI2066
V\u66dd
sI2067
V\u7554
sI2068
V\u7ae3
sI2069
V\u5446
sI2070
V\u5a74
sI2071
V\u5f0a
sI2072
V\u953b
sI2073
V\u50ac
sI2074
V\u53c9
sI2075
V\u7f62
sI2076
V\u8247
sI2077
V\u8f69
sI2078
V\u5085
sI2079
V\u5df7
sI2080
V\u6284
sI2081
V\u6d3d
sI2082
V\u743c
sI2083
V\u7ca4
sI2084
V\u7ff0
sI2085
V\u8fa9
sI2086
V\u903b
sI2087
V\u971c
sI2088
V\u55bb
sI2089
V\u60e7
sI2090
V\u629a
sI2091
V\u679d
sI2092
V\u6b96
sI2093
V\u6dcb
sI2094
V\u6f20
sI2095
V\u7845
sI2096
V\u78c1
sI2097
V\u7aed
sI2098
V\u4fa0
sI2099
V\u51d1
sI2100
V\u561b
sI2101
V\u5e16
sI2102
V\u6124
sI2103
V\u6b3a
sI2104
V\u6ee5
sI2105
V\u78ca
sI2106
V\u94c3
sI2107
V\u53e0
sI2108
V\u5915
sI2109
V\u5a77
sI2110
V\u7538
sI2111
V\u81c2
sI2112
V\u8896
sI2113
V\u90b5
sI2114
V\u987d
sI2115
V\u9f3b
sI2116
V\u64ce
sI2117
V\u77a9
sI2118
V\u8f96
sI2119
V\u9187
sI2120
V\u575e
sI2121
V\u5939
sI2122
V\u5a07
sI2123
V\u6e17
sI2124
V\u7cb9
sI2125
V\u8206
sI2126
V\u88e4
sI2127
V\u5f08
sI2128
V\u607c
sI2129
V\u8c6b
sI2130
V\u8f90
sI2131
V\u8fa3
sI2132
V\u9972
sI2133
V\u9c8d
sI2134
V\u52d8
sI2135
V\u5566
sI2136
V\u6656
sI2137
V\u76c6
sI2138
V\u8154
sI2139
V\u9aa4
sI2140
V\u9e70
sI2141
V\u4f2a
sI2142
V\u78b3
sI2143
V\u859b
sI2144
V\u8854
sI2145
V\u8bc8
sI2146
V\u9a8f
sI2147
V\u57ab
sI2148
V\u5de9
sI2149
V\u633d
sI2150
V\u7720
sI2151
V\u98a0
sI2152
V\u4ef0
sI2153
V\u4ef2
sI2154
V\u62b9
sI2155
V\u6cca
sI2156
V\u6e1d
sI2157
V\u7cdf
sI2158
V\u866b
sI2159
V\u906e
sI2160
V\u9f20
sI2161
V\u4ed1
sI2162
V\u522e
sI2163
V\u5395
sI2164
V\u54c0
sI2165
V\u5ba0
sI2166
V\u6749
sI2167
V\u6b49
sI2168
V\u7237
sI2169
V\u526a
sI2170
V\u5eb8
sI2171
V\u6d12
sI2172
V\u6e14
sI2173
V\u7470
sI2174
V\u9890
sI2175
V\u4e11
sI2176
V\u543b
sI2177
V\u5440
sI2178
V\u5baa
sI2179
V\u640f
sI2180
V\u845b
sI2181
V\u8702
sI2182
V\u886c
sI2183
V\u904f
sI2184
V\u5524
sI2185
V\u5f18
sI2186
V\u6155
sI2187
V\u6168
sI2188
V\u6674
sI2189
V\u6f06
sI2190
V\u7199
sI2191
V\u81e3
sI2192
V\u6068
sI2193
V\u6094
sI2194
V\u6109
sI2195
V\u6cbd
sI2196
V\u73ab
sI2197
V\u8d4e
sI2198
V\u51fd
sI2199
V\u5211
sI2200
V\u5239
sI2201
V\u5f92
sI2202
V\u6760
sI2203
V\u6960
sI2204
V\u6c41
sI2205
V\u7b4b
sI2206
V\u83f1
sI2207
V\u4ed5
sI2208
V\u5265
sI2209
V\u67ab
sI2210
V\u6ccc
sI2211
V\u6dee
sI2212
V\u817b
sI2213
V\u8587
sI2214
V\u87ba
sI2215
V\u9a82
sI2216
V\u50bb
sI2217
V\u5893
sI2218
V\u5f70
sI2219
V\u72fc
sI2220
V\u74f7
sI2221
V\u7626
sI2222
V\u832b
sI2223
V\u8346
sI2224
V\u9f7f
sI2225
V\u5f66
sI2226
V\u6016
sI2227
V\u65bc
sI2228
V\u679a
sI2229
V\u6d51
sI2230
V\u6f9c
sI2231
V\u72ee
sI2232
V\u7624
sI2233
V\u886b
sI2234
V\u90b9
sI2235
V\u58e4
sI2236
V\u5937
sI2237
V\u64bc
sI2238
V\u76ef
sI2239
V\u7978
sI2240
V\u82cd
sI2241
V\u840d
sI2242
V\u903e
sI2243
V\u90e1
sI2244
V\u97f5
sI2245
V\u9e2d
sI2246
V\u4f50
sI2247
V\u5413
sI2248
V\u57ae
sI2249
V\u594e
sI2250
V\u609f
sI2251
V\u65a9
sI2252
V\u6614
sI2253
V\u80aa
sI2254
V\u819d
sI2255
V\u964c
sI2256
V\u51f6
sI2257
V\u5378
sI2258
V\u5792
sI2259
V\u62fe
sI2260
V\u6355
sI2261
V\u6d78
sI2262
V\u73ca
sI2263
V\u745c
sI2264
V\u75d5
sI2265
V\u76d2
sI2266
V\u8c31
sI2267
V\u8d2a
sI2268
V\u8fb0
sI2269
V\u94a9
sI2270
V\u529d
sI2271
V\u60e9
sI2272
V\u660a
sI2273
V\u6cb8
sI2274
V\u704c
sI2275
V\u73ae
sI2276
V\u80be
sI2277
V\u80d6
sI2278
V\u852c
sI2279
V\u88f8
sI2280
V\u9e64
sI2281
V\u4ec7
sI2282
V\u5a1f
sI2283
V\u5d14
sI2284
V\u5e62
sI2285
V\u63fd
sI2286
V\u7272
sI2287
V\u72e0
sI2288
V\u796d
sI2289
V\u7a9d
sI2290
V\u7eb1
sI2291
V\u6c5b
sI2292
V\u7115
sI2293
V\u7235
sI2294
V\u742a
sI2295
V\u80a2
sI2296
V\u8d81
sI2297
V\u8e29
sI2298
V\u5475
sI2299
V\u5c39
sI2300
V\u7ee3
sI2301
V\u809a
sI2302
V\u851a
sI2303
V\u8c23
sI2304
V\u4f88
sI2305
V\u5195
sI2306
V\u5306
sI2307
V\u5410
sI2308
V\u5a9b
sI2309
V\u60d5
sI2310
V\u70e4
sI2311
V\u77e9
sI2312
V\u79d2
sI2313
V\u8231
sI2314
V\u901b
sI2315
V\u915d
sI2316
V\u4e53
sI2317
V\u51b6
sI2318
V\u5b5d
sI2319
V\u68da
sI2320
V\u68f5
sI2321
V\u7855
sI2322
V\u7a3b
sI2323
V\u52fe
sI2324
V\u54ac
sI2325
V\u54b8
sI2326
V\u54e6
sI2327
V\u5507
sI2328
V\u77bb
sI2329
V\u77f6
sI2330
V\u7c98
sI2331
V\u7ed1
sI2332
V\u8e81
sI2333
V\u90b1
sI2334
V\u5824
sI2335
V\u6d46
sI2336
V\u7838
sI2337
V\u7fc1
sI2338
V\u8fa8
sI2339
V\u997c
sI2340
V\u5ae9
sI2341
V\u5dfe
sI2342
V\u61c8
sI2343
V\u632a
sI2344
V\u660f
sI2345
V\u727a
sI2346
V\u7948
sI2347
V\u818f
sI2348
V\u97e7
sI2349
V\u9a9a
sI2350
V\u502a
sI2351
V\u517d
sI2352
V\u5254
sI2353
V\u5b9b
sI2354
V\u5c38
sI2355
V\u5ed6
sI2356
V\u6986
sI2357
V\u70ab
sI2358
V\u7897
sI2359
V\u79c9
sI2360
V\u7f20
sI2361
V\u84b8
sI2362
V\u84c9
sI2363
V\u8513
sI2364
V\u8776
sI2365
V\u8be0
sI2366
V\u9063
sI2367
V\u5751
sI2368
V\u66a8
sI2369
V\u6876
sI2370
V\u6b47
sI2371
V\u6d4f
sI2372
V\u7c41
sI2373
V\u8eb2
sI2374
V\u54e8
sI2375
V\u6349
sI2376
V\u6bd7
sI2377
V\u6dd1
sI2378
V\u7802
sI2379
V\u9709
sI2380
V\u5c6f
sI2381
V\u6101
sI2382
V\u6e5b
sI2383
V\u72ed
sI2384
V\u75f4
sI2385
V\u7f06
sI2386
V\u8042
sI2387
V\u8086
sI2388
V\u4ea9
sI2389
V\u52ab
sI2390
V\u538c
sI2391
V\u548f
sI2392
V\u5580
sI2393
V\u608d
sI2394
V\u6f84
sI2395
V\u7779
sI2396
V\u7f8c
sI2397
V\u8305
sI2398
V\u836b
sI2399
V\u84ec
sI2400
V\u97f6
sI2401
V\u4f63
sI2402
V\u5319
sI2403
V\u53d4
sI2404
V\u575f
sI2405
V\u60f9
sI2406
V\u64b0
sI2407
V\u6e0a
sI2408
V\u820c
sI2409
V\u86c7
sI2410
V\u8d29
sI2411
V\u4fde
sI2412
V\u626f
sI2413
V\u6454
sI2414
V\u6643
sI2415
V\u66d9
sI2416
V\u71ac
sI2417
V\u8fc4
sI2418
V\u96c0
sI2419
V\u56e4
sI2420
V\u6df9
sI2421
V\u730e
sI2422
V\u776b
sI2423
V\u8155
sI2424
V\u8180
sI2425
V\u846c
sI2426
V\u8fb1
sI2427
V\u901d
sI2428
V\u94f8
sI2429
V\u4e18
sI2430
V\u4fa3
sI2431
V\u5996
sI2432
V\u5f6c
sI2433
V\u6492
sI2434
V\u6a59
sI2435
V\u707f
sI2436
V\u754f
sI2437
V\u78f7
sI2438
V\u83b9
sI2439
V\u83ca
sI2440
V\u9523
sI2441
V\u4f1e
sI2442
V\u4fa6
sI2443
V\u541e
sI2444
V\u5bde
sI2445
V\u621a
sI2446
V\u6d3c
sI2447
V\u6e24
sI2448
V\u786b
sI2449
V\u840c
sI2450
V\u8eba
sI2451
V\u9753
sI2452
V\u4e38
sI2453
V\u50f5
sI2454
V\u53d9
sI2455
V\u5be5
sI2456
V\u5f64
sI2457
V\u61d2
sI2458
V\u638f
sI2459
V\u662d
sI2460
V\u68d5
sI2461
V\u6c9b
sI2462
V\u6cfb
sI2463
V\u6eb6
sI2464
V\u716e
sI2465
V\u7ef8
sI2466
V\u7f69
sI2467
V\u810a
sI2468
V\u868a
sI2469
V\u86ee
sI2470
V\u8bb6
sI2471
V\u95f8
sI2472
V\u96c1
sI2473
V\u9e45
sI2474
V\u9e9f
sI2475
V\u4ed7
sI2476
V\u5428
sI2477
V\u5a9a
sI2478
V\u6127
sI2479
V\u6655
sI2480
V\u6ec7
sI2481
V\u71e5
sI2482
V\u7384
sI2483
V\u789f
sI2484
V\u7b28
sI2485
V\u8c05
sI2486
V\u8e0a
sI2487
V\u94a5
sI2488
V\u94c2
sI2489
V\u96a7
sI2490
V\u4e19
sI2491
V\u4e1b
sI2492
V\u4e9f
sI2493
V\u5e1c
sI2494
V\u62f1
sI2495
V\u6577
sI2496
V\u6816
sI2497
V\u6bb7
sI2498
V\u6f13
sI2499
V\u755c
sI2500
V\u7784
sI2501
V\u788c
sI2502
V\u7fd8
sI2503
V\u8292
sI2504
V\u831c
sI2505
V\u960e
sI2506
V\u9761
sI2507
V\u51a4
sI2508
V\u5375
sI2509
V\u53db
sI2510
V\u5435
sI2511
V\u576f
sI2512
V\u5f26
sI2513
V\u6247
sI2514
V\u6bef
sI2515
V\u7f38
sI2516
V\u81ed
sI2517
V\u82a6
sI2518
V\u8a79
sI2519
V\u94a7
sI2520
V\u96ef
sI2521
V\u9a73
sI2522
V\u9ad3
sI2523
V\u4fcf
sI2524
V\u5203
sI2525
V\u52cb
sI2526
V\u674f
sI2527
V\u68a8
sI2528
V\u6cfc
sI2529
V\u7b52
sI2530
V\u96c7
sI2531
V\u5492
sI2532
V\u5e18
sI2533
V\u6273
sI2534
V\u7476
sI2535
V\u763e
sI2536
V\u79bd
sI2537
V\u800d
sI2538
V\u803b
sI2539
V\u8299
sI2540
V\u8a93
sI2541
V\u8c26
sI2542
V\u9b44
sI2543
V\u5565
sI2544
V\u5955
sI2545
V\u664f
sI2546
V\u6850
sI2547
V\u6a61
sI2548
V\u7529
sI2549
V\u7eac
sI2550
V\u7ef3
sI2551
V\u7fa1
sI2552
V\u9493
sI2553
V\u5029
sI2554
V\u52c9
sI2555
V\u5300
sI2556
V\u5598
sI2557
V\u57d4
sI2558
V\u5ce8
sI2559
V\u5dc5
sI2560
V\u68b3
sI2561
V\u6a31
sI2562
V\u6c28
sI2563
V\u6d85
sI2564
V\u6da1
sI2565
V\u7a3d
sI2566
V\u84b2
sI2567
V\u8d1e
sI2568
V\u8d9f
sI2569
V\u9699
sI2570
V\u9882
sI2571
V\u9edb
sI2572
V\u54d7
sI2573
V\u5e37
sI2574
V\u5f27
sI2575
V\u601c
sI2576
V\u60bc
sI2577
V\u611a
sI2578
V\u6467
sI2579
V\u6ca7
sI2580
V\u6dc7
sI2581
V\u6f47
sI2582
V\u7ef7
sI2583
V\u803f
sI2584
V\u8bb3
sI2585
V\u8d3f
sI2586
V\u8f9c
sI2587
V\u90dd
sI2588
V\u9508
sI2589
V\u950c
sI2590
V\u9610
sI2591
V\u961c
sI2592
V\u9704
sI2593
V\u978d
sI2594
V\u5026
sI2595
V\u5188
sI2596
V\u532a
sI2597
V\u535c
sI2598
V\u5bb0
sI2599
V\u5d16
sI2600
V\u69fd
sI2601
V\u709c
sI2602
V\u7574
sI2603
V\u75d8
sI2604
V\u7a74
sI2605
V\u813e
sI2606
V\u82ad
sI2607
V\u8bc0
sI2608
V\u8c1c
sI2609
V\u8c79
sI2610
V\u90aa
sI2611
V\u9489
sI2612
V\u94a6
sI2613
V\u997f
sI2614
V\u54bd
sI2615
V\u5a49
sI2616
V\u6405
sI2617
V\u682a
sI2618
V\u68ad
sI2619
V\u6d47
sI2620
V\u70ef
sI2621
V\u77ee
sI2622
V\u7a91
sI2623
V\u7ad6
sI2624
V\u7fc5
sI2625
V\u8335
sI2626
V\u853d
sI2627
V\u8721
sI2628
V\u962e
sI2629
V\u9756
sI2630
V\u9f9a
sI2631
V\u55a7
sI2632
V\u5631
sI2633
V\u5b99
sI2634
V\u5deb
sI2635
V\u6328
sI2636
V\u6a0a
sI2637
V\u7f50
sI2638
V\u7f9e
sI2639
V\u808b
sI2640
V\u8236
sI2641
V\u82db
sI2642
V\u85e4
sI2643
V\u8680
sI2644
V\u949b
sI2645
V\u94ae
sI2646
V\u9706
sI2647
V\u4f51
sI2648
V\u508d
sI2649
V\u5112
sI2650
V\u5256
sI2651
V\u59ec
sI2652
V\u5d2d
sI2653
V\u6495
sI2654
V\u6984
sI2655
V\u6a44
sI2656
V\u6cf5
sI2657
V\u6ee4
sI2658
V\u6fa1
sI2659
V\u70db
sI2660
V\u785d
sI2661
V\u7eef
sI2662
V\u7f14
sI2663
V\u8822
sI2664
V\u96cd
sI2665
V\u5632
sI2666
V\u57a6
sI2667
V\u62d8
sI2668
V\u6714
sI2669
V\u68d8
sI2670
V\u6eaf
sI2671
V\u70eb
sI2672
V\u777f
sI2673
V\u88d4
sI2674
V\u9965
sI2675
V\u4e7e
sI2676
V\u4f7c
sI2677
V\u4fef
sI2678
V\u51f3
sI2679
V\u5450
sI2680
V\u5760
sI2681
V\u62ef
sI2682
V\u65a4
sI2683
V\u6cbe
sI2684
V\u718f
sI2685
V\u72f1
sI2686
V\u7410
sI2687
V\u745f
sI2688
V\u7a57
sI2689
V\u7b5b
sI2690
V\u7efd
sI2691
V\u8c41
sI2692
V\u90c5
sI2693
V\u4f3d
sI2694
V\u5180
sI2695
V\u532e
sI2696
V\u5398
sI2697
V\u5983
sI2698
V\u6988
sI2699
V\u6a58
sI2700
V\u6df3
sI2701
V\u7011
sI2702
V\u725f
sI2703
V\u78b1
sI2704
V\u841d
sI2705
V\u9631
sI2706
V\u4f83
sI2707
V\u533f
sI2708
V\u53ee
sI2709
V\u574d
sI2710
V\u59d7
sI2711
V\u5c60
sI2712
V\u6254
sI2713
V\u6346
sI2714
V\u67af
sI2715
V\u6c81
sI2716
V\u6da9
sI2717
V\u7334
sI2718
V\u75d2
sI2719
V\u7693
sI2720
V\u76b1
sI2721
V\u780d
sI2722
V\u7941
sI2723
V\u79ba
sI2724
V\u7a1a
sI2725
V\u8403
sI2726
V\u88b1
sI2727
V\u8bbd
sI2728
V\u9042
sI2729
V\u95f5
sI2730
V\u9f9f
sI2731
V\u501a
sI2732
V\u52ff
sI2733
V\u5578
sI2734
V\u59e8
sI2735
V\u65f1
sI2736
V\u6805
sI2737
V\u6ca6
sI2738
V\u70b3
sI2739
V\u7f1a
sI2740
V\u8700
sI2741
V\u94be
sI2742
V\u4f5f
sI2743
V\u50e7
sI2744
V\u51f9
sI2745
V\u537f
sI2746
V\u5384
sI2747
V\u54d1
sI2748
V\u5a05
sI2749
V\u5bb5
sI2750
V\u60eb
sI2751
V\u6177
sI2752
V\u635e
sI2753
V\u655b
sI2754
V\u66e6
sI2755
V\u6869
sI2756
V\u6e9c
sI2757
V\u7422
sI2758
V\u752b
sI2759
V\u77b0
sI2760
V\u8304
sI2761
V\u89c5
sI2762
V\u8c0d
sI2763
V\u8c0e
sI2764
V\u8d50
sI2765
V\u918b
sI2766
V\u964b
sI2767
V\u9661
sI2768
V\u9ccc
sI2769
V\u5320
sI2770
V\u541f
sI2771
V\u54ab
sI2772
V\u5589
sI2773
V\u55c5
sI2774
V\u56a3
sI2775
V\u5974
sI2776
V\u5be1
sI2777
V\u5d4c
sI2778
V\u6512
sI2779
V\u70f9
sI2780
V\u7184
sI2781
V\u7985
sI2782
V\u8038
sI2783
V\u8354
sI2784
V\u88f9
sI2785
V\u8dfb
sI2786
V\u94c5
sI2787
V\u94f2
sI2788
V\u9540
sI2789
V\u9576
sI2790
V\u9976
sI2791
V\u9cc4
sI2792
V\u5a34
sI2793
V\u5b5c
sI2794
V\u5c90
sI2795
V\u625b
sI2796
V\u65ec
sI2797
V\u6ce3
sI2798
V\u6e23
sI2799
V\u72ac
sI2800
V\u79be
sI2801
V\u7a83
sI2802
V\u7a8d
sI2803
V\u7ed2
sI2804
V\u8339
sI2805
V\u8367
sI2806
V\u849c
sI2807
V\u85c9
sI2808
V\u90a2
sI2809
V\u9640
sI2810
V\u9774
sI2811
V\u9776
sI2812
V\u97ad
sI2813
V\u9e3d
sI2814
V\u9e93
sI2815
V\u5018
sI2816
V\u515c
sI2817
V\u543e
sI2818
V\u54c4
sI2819
V\u5a67
sI2820
V\u5c82
sI2821
V\u606d
sI2822
V\u62e2
sI2823
V\u634d
sI2824
V\u6401
sI2825
V\u6687
sI2826
V\u6c22
sI2827
V\u714e
sI2828
V\u77eb
sI2829
V\u7f00
sI2830
V\u7f24
sI2831
V\u8471
sI2832
V\u8749
sI2833
V\u8774
sI2834
V\u87f9
sI2835
V\u9017
sI2836
V\u90a1
sI2837
V\u4fed
sI2838
V\u5984
sI2839
V\u5c51
sI2840
V\u5f6a
sI2841
V\u60ec
sI2842
V\u61a7
sI2843
V\u61ac
sI2844
V\u6342
sI2845
V\u67a3
sI2846
V\u6a1f
sI2847
V\u6c2f
sI2848
V\u79b9
sI2849
V\u7f2a
sI2850
V\u8046
sI2851
V\u8087
sI2852
V\u80f0
sI2853
V\u8f84
sI2854
V\u8fed
sI2855
V\u9102
sI2856
V\u9171
sI2857
V\u9497
sI2858
V\u95fd
sI2859
V\u9893
sI2860
V\u5a36
sI2861
V\u5c27
sI2862
V\u5ed3
sI2863
V\u621b
sI2864
V\u6361
sI2865
V\u63e3
sI2866
V\u7455
sI2867
V\u7741
sI2868
V\u7c3f
sI2869
V\u7fe1
sI2870
V\u821c
sI2871
V\u846b
sI2872
V\u9541
sI2873
V\u4f6c
sI2874
V\u5349
sI2875
V\u5352
sI2876
V\u5669
sI2877
V\u58f9
sI2878
V\u5ab2
sI2879
V\u6296
sI2880
V\u6c90
sI2881
V\u6d9d
sI2882
V\u6fd2
sI2883
V\u73c2
sI2884
V\u745b
sI2885
V\u7682
sI2886
V\u7792
sI2887
V\u77a7
sI2888
V\u77e2
sI2889
V\u7a9f
sI2890
V\u7eb6
sI2891
V\u7eca
sI2892
V\u7eda
sI2893
V\u7f05
sI2894
V\u8098
sI2895
V\u829c
sI2896
V\u82ef
sI2897
V\u888d
sI2898
V\u9091
sI2899
V\u949e
sI2900
V\u9a86
sI2901
V\u9eef
sI2902
V\u4e56
sI2903
V\u58a9
sI2904
V\u5a04
sI2905
V\u5c7f
sI2906
V\u5cea
sI2907
V\u5dcd
sI2908
V\u5f8a
sI2909
V\u5f98
sI2910
V\u5fe1
sI2911
V\u6151
sI2912
V\u631a
sI2913
V\u6817
sI2914
V\u6866
sI2915
V\u68a7
sI2916
V\u690e
sI2917
V\u6912
sI2918
V\u6a71
sI2919
V\u6cbc
sI2920
V\u7426
sI2921
V\u7504
sI2922
V\u7578
sI2923
V\u75b9
sI2924
V\u780c
sI2925
V\u78d5
sI2926
V\u7d0a
sI2927
V\u7f2e
sI2928
V\u8650
sI2929
V\u889c
sI2930
V\u8d31
sI2931
V\u9492
sI2932
V\u95eb
sI2933
V\u96b6
sI2934
V\u9b41
sI2935
V\u9e6d
sI2936
V\u9ed4
sI2937
V\u5220
sI2938
V\u5582
sI2939
V\u5587
sI2940
V\u5978
sI2941
V\u5c9a
sI2942
V\u5f13
sI2943
V\u62c7
sI2944
V\u65a7
sI2945
V\u65f7
sI2946
V\u6615
sI2947
V\u665f
sI2948
V\u6795
sI2949
V\u67c4
sI2950
V\u683d
sI2951
V\u6893
sI2952
V\u6a90
sI2953
V\u6f8e
sI2954
V\u715e
sI2955
V\u7280
sI2956
V\u7329
sI2957
V\u75b5
sI2958
V\u762b
sI2959
V\u78cb
sI2960
V\u7960
sI2961
V\u79a7
sI2962
V\u7ec5
sI2963
V\u7ede
sI2964
V\u803d
sI2965
V\u816e
sI2966
V\u83c1
sI2967
V\u84df
sI2968
V\u867e
sI2969
V\u8e44
sI2970
V\u8f99
sI2971
V\u901e
sI2972
V\u4fd1
sI2973
V\u5351
sI2974
V\u548b
sI2975
V\u549a
sI2976
V\u598d
sI2977
V\u63a0
sI2978
V\u663c
sI2979
V\u6930
sI2980
V\u6995
sI2981
V\u6c55
sI2982
V\u6dcc
sI2983
V\u6e3a
sI2984
V\u7076
sI2985
V\u70c1
sI2986
V\u7130
sI2987
V\u7261
sI2988
V\u73d1
sI2989
V\u7737
sI2990
V\u78c5
sI2991
V\u7cd9
sI2992
V\u81c0
sI2993
V\u8258
sI2994
V\u82b8
sI2995
V\u82bd
sI2996
V\u837c
sI2997
V\u85af
sI2998
V\u8882
sI2999
V\u8e72
sI3000
V\u900d
sI3001
V\u90dc
sI3002
V\u94ec
sI3003
V\u96cf
sI3004
V\u9a8b
sI3005
V\u9ae6
sI3006
V\u9ecf
sI3007
V\u5154
sI3008
V\u543c
sI3009
V\u54b3
sI3010
V\u54ee
sI3011
V\u5c41
sI3012
V\u5e90
sI3013
V\u62ed
sI3014
V\u634f
sI3015
V\u6789
sI3016
V\u68f1
sI3017
V\u69bb
sI3018
V\u6b6a
sI3019
V\u6bcb
sI3020
V\u6c40
sI3021
V\u6c68
sI3022
V\u6da4
sI3023
V\u7409
sI3024
V\u773a
sI3025
V\u7940
sI3026
V\u7f2d
sI3027
V\u88f4
sI3028
V\u8c34
sI3029
V\u8dea
sI3030
V\u8fe5
sI3031
V\u9165
sI3032
V\u9499
sI3033
V\u9524
sI3034
V\u9647
sI3035
V\u9a6d
sI3036
V\u9e26
sI3037
V\u5366
sI3038
V\u548e
sI3039
V\u5618
sI3040
V\u561f
sI3041
V\u58f6
sI3042
V\u5c91
sI3043
V\u5d0e
sI3044
V\u6096
sI3045
V\u61a9
sI3046
V\u62cc
sI3047
V\u631f
sI3048
V\u6320
sI3049
V\u63b7
sI3050
V\u6627
sI3051
V\u66f0
sI3052
V\u67ec
sI3053
V\u6977
sI3054
V\u6c79
sI3055
V\u6cf8
sI3056
V\u6f29
sI3057
V\u705e
sI3058
V\u7099
sI3059
V\u711a
sI3060
V\u715c
sI3061
V\u73c0
sI3062
V\u74a8
sI3063
V\u7977
sI3064
V\u7b0b
sI3065
V\u7b1b
sI3066
V\u7c07
sI3067
V\u7ef0
sI3068
V\u7f61
sI3069
V\u8446
sI3070
V\u84bf
sI3071
V\u8715
sI3072
V\u8e1d
sI3073
V\u9685
sI3074
V\u9877
sI3075
V\u9a90
sI3076
V\u4fe8
sI3077
V\u516e
sI3078
V\u5189
sI3079
V\u5201
sI3080
V\u535e
sI3081
V\u5671
sI3082
V\u572d
sI3083
V\u57a2
sI3084
V\u57a3
sI3085
V\u5ac2
sI3086
V\u5ced
sI3087
V\u5d69
sI3088
V\u5e9a
sI3089
V\u60f6
sI3090
V\u6241
sI3091
V\u6590
sI3092
V\u67e0
sI3093
V\u6868
sI3094
V\u68cd
sI3095
V\u6a80
sI3096
V\u6dc6
sI3097
V\u6f62
sI3098
V\u6f88
sI3099
V\u73ba
sI3100
V\u75ea
sI3101
V\u7984
sI3102
V\u7aff
sI3103
V\u7ca5
sI3104
V\u81b3
sI3105
V\u835f
sI3106
V\u8695
sI3107
V\u8944
sI3108
V\u8bf5
sI3109
V\u8d3c
sI3110
V\u8dbe
sI3111
V\u8f67
sI3112
V\u90af
sI3113
V\u9163
sI3114
V\u919b
sI3115
V\u94a0
sI3116
V\u94ff
sI3117
V\u9716
sI3118
V\u98da
sI3119
V\u4fd0
sI3120
V\u541d
sI3121
V\u560e
sI3122
V\u5993
sI3123
V\u5b5a
sI3124
V\u606c
sI3125
V\u6289
sI3126
V\u64c2
sI3127
V\u66ae
sI3128
V\u6813
sI3129
V\u69ad
sI3130
V\u6aac
sI3131
V\u6c5d
sI3132
V\u6c7e
sI3133
V\u6c93
sI3134
V\u6deb
sI3135
V\u6e89
sI3136
V\u6f7c
sI3137
V\u707c
sI3138
V\u74e3
sI3139
V\u7766
sI3140
V\u783e
sI3141
V\u7f44
sI3142
V\u80b4
sI3143
V\u818a
sI3144
V\u8235
sI3145
V\u85e9
sI3146
V\u8681
sI3147
V\u86db
sI3148
V\u8beb
sI3149
V\u8c5a
sI3150
V\u8e35
sI3151
V\u9050
sI3152
V\u914c
sI3153
V\u94b0
sI3154
V\u954d
sI3155
V\u97a0
sI3156
V\u98d3
sI3157
V\u4ea2
sI3158
V\u4ec6
sI3159
V\u4ffa
sI3160
V\u51a5
sI3161
V\u57e0
sI3162
V\u5cb7
sI3163
V\u5f1b
sI3164
V\u62ce
sI3165
V\u6452
sI3166
V\u6619
sI3167
V\u6c72
sI3168
V\u6cfe
sI3169
V\u70e8
sI3170
V\u710a
sI3171
V\u72c4
sI3172
V\u72d9
sI3173
V\u7480
sI3174
V\u7490
sI3175
V\u7736
sI3176
V\u7a96
sI3177
V\u7a98
sI3178
V\u7aa5
sI3179
V\u7b77
sI3180
V\u8116
sI3181
V\u84d3
sI3182
V\u86d9
sI3183
V\u8910
sI3184
V\u8bdf
sI3185
V\u8fab
sI3186
V\u914b
sI3187
V\u988a
sI3188
V\u4f3a
sI3189
V\u4fa5
sI3190
V\u5162
sI3191
V\u55dc
sI3192
V\u56bc
sI3193
V\u5777
sI3194
V\u592f
sI3195
V\u59a9
sI3196
V\u5b70
sI3197
V\u5bc5
sI3198
V\u5bdd
sI3199
V\u618b
sI3200
V\u6292
sI3201
V\u6487
sI3202
V\u64ac
sI3203
V\u6808
sI3204
V\u69df
sI3205
V\u6ca5
sI3206
V\u6cae
sI3207
V\u6d50
sI3208
V\u701a
sI3209
V\u72e1
sI3210
V\u731d
sI3211
V\u745a
sI3212
V\u75a1
sI3213
V\u75ae
sI3214
V\u77e3
sI3215
V\u7901
sI3216
V\u7f15
sI3217
V\u7fb9
sI3218
V\u7fdf
sI3219
V\u8165
sI3220
V\u8331
sI3221
V\u85fb
sI3222
V\u865e
sI3223
V\u8712
sI3224
V\u873f
sI3225
V\u8747
sI3226
V\u8be1
sI3227
V\u8d42
sI3228
V\u8eac
sI3229
V\u8f97
sI3230
V\u916f
sI3231
V\u9175
sI3232
V\u949d
sI3233
V\u9502
sI3234
V\u952f
sI3235
V\u96cc
sI3236
V\u9713
sI3237
V\u97ec
sI3238
V\u98a4
sI3239
V\u996a
sI3240
V\u9a74
sI3241
V\u9a7c
sI3242
V\u4e2b
sI3243
V\u5156
sI3244
V\u59ca
sI3245
V\u5a6a
sI3246
V\u5ae3
sI3247
V\u5b09
sI3248
V\u5ffb
sI3249
V\u61ff
sI3250
V\u627c
sI3251
V\u62d9
sI3252
V\u62e3
sI3253
V\u62f7
sI3254
V\u6664
sI3255
V\u6da3
sI3256
V\u6daa
sI3257
V\u6ed4
sI3258
V\u6f33
sI3259
V\u6f4d
sI3260
V\u72f8
sI3261
V\u73cf
sI3262
V\u7405
sI3263
V\u7b60
sI3264
V\u7b8d
sI3265
V\u7f28
sI3266
V\u814b
sI3267
V\u8393
sI3268
V\u88f3
sI3269
V\u895f
sI3270
V\u8b6c
sI3271
V\u8c27
sI3272
V\u8e66
sI3273
V\u8e74
sI3274
V\u9176
sI3275
V\u9551
sI3276
V\u9773
sI3277
V\u9cde
sI3278
V\u9e92
sI3279
V\u4fea
sI3280
V\u53ae
sI3281
V\u5471
sI3282
V\u5484
sI3283
V\u55d3
sI3284
V\u56da
sI3285
V\u592d
sI3286
V\u595a
sI3287
V\u5a7f
sI3288
V\u5b95
sI3289
V\u61a8
sI3290
V\u620e
sI3291
V\u62a8
sI3292
V\u62c2
sI3293
V\u6345
sI3294
V\u6726
sI3295
V\u673d
sI3296
V\u6897
sI3297
V\u69a8
sI3298
V\u69d0
sI3299
V\u6c2e
sI3300
V\u6e2d
sI3301
V\u701b
sI3302
V\u7396
sI3303
V\u73a5
sI3304
V\u76ce
sI3305
V\u7a92
sI3306
V\u7a9c
sI3307
V\u7aa6
sI3308
V\u7c38
sI3309
V\u7eee
sI3310
V\u7f9a
sI3311
V\u8113
sI3312
V\u8205
sI3313
V\u82d4
sI3314
V\u82df
sI3315
V\u83c7
sI3316
V\u88e8
sI3317
V\u8983
sI3318
V\u8de4
sI3319
V\u9083
sI3320
V\u90b8
sI3321
V\u91c9
sI3322
V\u94b5
sI3323
V\u9530
sI3324
V\u9600
sI3325
V\u997a
sI3326
V\u997d
sI3327
V\u9985
sI3328
V\u9aa5
sI3329
V\u9cb2
sI3330
V\u4e4d
sI3331
V\u4fae
sI3332
V\u51c4
sI3333
V\u51ff
sI3334
V\u5321
sI3335
V\u5ab3
sI3336
V\u5d58
sI3337
V\u604d
sI3338
V\u6363
sI3339
V\u6400
sI3340
V\u6556
sI3341
V\u6829
sI3342
V\u6a28
sI3343
V\u6cd3
sI3344
V\u6d52
sI3345
V\u6e32
sI3346
V\u6eb4
sI3347
V\u6f5e
sI3348
V\u708a
sI3349
V\u7096
sI3350
V\u7131
sI3351
V\u717d
sI3352
V\u74a7
sI3353
V\u75f0
sI3354
V\u76cf
sI3355
V\u76d4
sI3356
V\u7728
sI3357
V\u7729
sI3358
V\u77b3
sI3359
V\u7b50
sI3360
V\u7c7d
sI3361
V\u7c95
sI3362
V\u7ee5
sI3363
V\u80f3
sI3364
V\u81ba
sI3365
V\u81fb
sI3366
V\u8517
sI3367
V\u8c2c
sI3368
V\u8db4
sI3369
V\u90e6
sI3370
V\u9119
sI3371
V\u9535
sI3372
V\u9550
sI3373
V\u96f9
sI3374
V\u9992
sI3375
V\u4f70
sI3376
V\u4fac
sI3377
V\u5288
sI3378
V\u5308
sI3379
V\u533e
sI3380
V\u53e8
sI3381
V\u5455
sI3382
V\u5490
sI3383
V\u54c9
sI3384
V\u5586
sI3385
V\u5703
sI3386
V\u5a23
sI3387
V\u5bb8
sI3388
V\u5c8c
sI3389
V\u5e4c
sI3390
V\u6073
sI3391
V\u60b8
sI3392
V\u621f
sI3393
V\u62e7
sI3394
V\u631b
sI3395
V\u63ea
sI3396
V\u6402
sI3397
V\u66a7
sI3398
V\u67ff
sI3399
V\u68e0
sI3400
V\u6bc2
sI3401
V\u6c13
sI3402
V\u6d5a
sI3403
V\u6de4
sI3404
V\u704f
sI3405
V\u70af
sI3406
V\u72b7
sI3407
V\u7487
sI3408
V\u77bf
sI3409
V\u781d
sI3410
V\u78fa
sI3411
V\u7b5d
sI3412
V\u7bf1
sI3413
V\u7caa
sI3414
V\u7d6e
sI3415
V\u7f79
sI3416
V\u8475
sI3417
V\u8559
sI3418
V\u85b0
sI3419
V\u8be7
sI3420
V\u8d63
sI3421
V\u8ff8
sI3422
V\u9a7f
sI3423
V\u9a8a
sI3424
V\u9cb8
sI3425
V\u9e43
sI3426
V\u4f58
sI3427
V\u50da
sI3428
V\u53ed
sI3429
V\u5406
sI3430
V\u54fa
sI3431
V\u54fd
sI3432
V\u556c
sI3433
V\u55fd
sI3434
V\u5815
sI3435
V\u5a25
sI3436
V\u5a55
sI3437
V\u5bc7
sI3438
V\u5bf0
sI3439
V\u5cd9
sI3440
V\u5f0b
sI3441
V\u6020
sI3442
V\u60e6
sI3443
V\u6123
sI3444
V\u6756
sI3445
V\u69b4
sI3446
V\u69cc
sI3447
V\u6b86
sI3448
V\u6ba1
sI3449
V\u6bb4
sI3450
V\u6cb1
sI3451
V\u6cd7
sI3452
V\u6dc4
sI3453
V\u70d9
sI3454
V\u70fd
sI3455
V\u7172
sI3456
V\u71a0
sI3457
V\u733f
sI3458
V\u739f
sI3459
V\u741b
sI3460
V\u7436
sI3461
V\u747e
sI3462
V\u75a4
sI3463
V\u7738
sI3464
V\u778e
sI3465
V\u77aa
sI3466
V\u7825
sI3467
V\u7881
sI3468
V\u795b
sI3469
V\u7afa
sI3470
V\u7c27
sI3471
V\u7c91
sI3472
V\u7ead
sI3473
V\u804b
sI3474
V\u80da
sI3475
V\u80e5
sI3476
V\u80e7
sI3477
V\u80fa
sI3478
V\u81c6
sI3479
V\u8317
sI3480
V\u8327
sI3481
V\u868c
sI3482
V\u8783
sI3483
V\u89d1
sI3484
V\u8bb4
sI3485
V\u8dc6
sI3486
V\u8dcb
sI3487
V\u8df7
sI3488
V\u8eaf
sI3489
V\u8fc2
sI3490
V\u9005
sI3491
V\u902e
sI3492
V\u9082
sI3493
V\u916e
sI3494
V\u94ee
sI3495
V\u962a
sI3496
V\u9668
sI3497
V\u96bd
sI3498
V\u9b47
sI3499
V\u9e5c
sI3500
V\u9ebe
sI3501
V\u4e5e
sI3502
V\u4f0e
sI3503
V\u50fb
sI3504
V\u5228
sI3505
V\u5480
sI3506
V\u5486
sI3507
V\u54aa
sI3508
V\u54c7
sI3509
V\u5608
sI3510
V\u5992
sI3511
V\u5ce5
sI3512
V\u5d02
sI3513
V\u5f77
sI3514
V\u6059
sI3515
V\u606a
sI3516
V\u60cb
sI3517
V\u631d
sI3518
V\u63c9
sI3519
V\u6413
sI3520
V\u6518
sI3521
V\u6853
sI3522
V\u68fa
sI3523
V\u692d
sI3524
V\u693f
sI3525
V\u6b87
sI3526
V\u6bd3
sI3527
V\u6c1f
sI3528
V\u6c50
sI3529
V\u6d9f
sI3530
V\u6e0e
sI3531
V\u7239
sI3532
V\u7398
sI3533
V\u7444
sI3534
V\u752c
sI3535
V\u75f9
sI3536
V\u7619
sI3537
V\u768b
sI3538
V\u7747
sI3539
V\u77d7
sI3540
V\u79c3
sI3541
V\u7cdc
sI3542
V\u7f81
sI3543
V\u7fe9
sI3544
V\u8169
sI3545
V\u82ae
sI3546
V\u82c7
sI3547
V\u8611
sI3548
V\u8638
sI3549
V\u8c1a
sI3550
V\u8d2e
sI3551
V\u8db8
sI3552
V\u94f5
sI3553
V\u950f
sI3554
V\u968b
sI3555
V\u973e
sI3556
V\u9a6f
sI3557
V\u9ca8
sI3558
V\u9e25
sI3559
V\u9ebd
sI3560
V\u4f8d
sI3561
V\u4f97
sI3562
V\u5055
sI3563
V\u527f
sI3564
V\u5495
sI3565
V\u54a4
sI3566
V\u550f
sI3567
V\u5543
sI3568
V\u5742
sI3569
V\u59e5
sI3570
V\u5a29
sI3571
V\u5ac9
sI3572
V\u5c96
sI3573
V\u5f99
sI3574
V\u5ff1
sI3575
V\u602f
sI3576
V\u6055
sI3577
V\u609a
sI3578
V\u60ee
sI3579
V\u60fa
sI3580
V\u61f5
sI3581
V\u620d
sI3582
V\u63ba
sI3583
V\u6657
sI3584
V\u66f3
sI3585
V\u675e
sI3586
V\u69b7
sI3587
V\u6c82
sI3588
V\u6da7
sI3589
V\u6ef9
sI3590
V\u6fdb
sI3591
V\u70bd
sI3592
V\u722a
sI3593
V\u7316
sI3594
V\u73de
sI3595
V\u759f
sI3596
V\u75ff
sI3597
V\u78d0
sI3598
V\u7f09
sI3599
V\u809b
sI3600
V\u80bd
sI3601
V\u80f1
sI3602
V\u81a6
sI3603
V\u82b7
sI3604
V\u82b9
sI3605
V\u8338
sI3606
V\u8385
sI3607
V\u83e9
sI3608
V\u8654
sI3609
V\u88a4
sI3610
V\u88d8
sI3611
V\u8936
sI3612
V\u8c19
sI3613
V\u8c29
sI3614
V\u8c82
sI3615
V\u8d58
sI3616
V\u8e1e
sI3617
V\u8e4a
sI3618
V\u93d6
sI3619
V\u948a
sI3620
V\u94bc
sI3621
V\u9556
sI3622
V\u95fa
sI3623
V\u9e33
sI3624
V\u9e9d
sI3625
V\u4e1e
sI3626
V\u4fd8
sI3627
V\u504e
sI3628
V\u5243
sI3629
V\u5364
sI3630
V\u53f1
sI3631
V\u5466
sI3632
V\u5499
sI3633
V\u54a7
sI3634
V\u54a9
sI3635
V\u54af
sI3636
V\u54df
sI3637
V\u552c
sI3638
V\u557c
sI3639
V\u5583
sI3640
V\u5600
sI3641
V\u5b75
sI3642
V\u5e27
sI3643
V\u5fa8
sI3644
V\u5fd0
sI3645
V\u5fd1
sI3646
V\u6064
sI3647
V\u607a
sI3648
V\u611b
sI3649
V\u6252
sI3650
V\u62ee
sI3651
V\u6390
sI3652
V\u64d2
sI3653
V\u658b
sI3654
V\u6593
sI3655
V\u659f
sI3656
V\u65ce
sI3657
V\u67ad
sI3658
V\u67b8
sI3659
V\u6b83
sI3660
V\u6c8c
sI3661
V\u6cde
sI3662
V\u6d4a
sI3663
V\u6dae
sI3664
V\u6e44
sI3665
V\u6e85
sI3666
V\u6eba
sI3667
V\u6f31
sI3668
V\u6f3e
sI3669
V\u70d8
sI3670
V\u7109
sI3671
V\u7194
sI3672
V\u7281
sI3673
V\u72e9
sI3674
V\u740f
sI3675
V\u748b
sI3676
V\u7599
sI3677
V\u75c9
sI3678
V\u7629
sI3679
V\u766b
sI3680
V\u7696
sI3681
V\u797a
sI3682
V\u7980
sI3683
V\u79c6
sI3684
V\u79fd
sI3685
V\u7a23
sI3686
V\u7a79
sI3687
V\u7b08
sI3688
V\u7f1c
sI3689
V\u8018
sI3690
V\u8110
sI3691
V\u81e7
sI3692
V\u82f7
sI3693
V\u8301
sI3694
V\u8309
sI3695
V\u8343
sI3696
V\u83bd
sI3697
V\u83e0
sI3698
V\u8426
sI3699
V\u8549
sI3700
V\u86c0
sI3701
V\u8718
sI3702
V\u874e
sI3703
V\u8912
sI3704
V\u892a
sI3705
V\u8ba7
sI3706
V\u8e7f
sI3707
V\u8f76
sI3708
V\u8f7c
sI3709
V\u8f95
sI3710
V\u909b
sI3711
V\u915a
sI3712
V\u916a
sI3713
V\u919a
sI3714
V\u91dc
sI3715
V\u94b3
sI3716
V\u94c0
sI3717
V\u94e2
sI3718
V\u9642
sI3719
V\u96f3
sI3720
V\u9701
sI3721
V\u9739
sI3722
V\u99a5
sI3723
V\u9a79
sI3724
V\u9abc
sI3725
V\u9e2f
sI3726
V\u4e98
sI3727
V\u504c
sI3728
V\u5140
sI3729
V\u51cb
sI3730
V\u51db
sI3731
V\u52fa
sI3732
V\u5323
sI3733
V\u53a5
sI3734
V\u5421
sI3735
V\u54e9
sI3736
V\u55b5
sI3737
V\u55e3
sI3738
V\u563b
sI3739
V\u565c
sI3740
V\u566c
sI3741
V\u56b7
sI3742
V\u5942
sI3743
V\u598a
sI3744
V\u59dd
sI3745
V\u5a20
sI3746
V\u5b7d
sI3747
V\u5bd0
sI3748
V\u5c4e
sI3749
V\u5d03
sI3750
V\u6043
sI3751
V\u61ca
sI3752
V\u61e6
sI3753
V\u6226
sI3754
V\u6233
sI3755
V\u63ac
sI3756
V\u672d
sI3757
V\u6809
sI3758
V\u683e
sI3759
V\u693d
sI3760
V\u6b79
sI3761
V\u6c5e
sI3762
V\u6d54
sI3763
V\u6d93
sI3764
V\u6d95
sI3765
V\u6dfc
sI3766
V\u6e43
sI3767
V\u6eb1
sI3768
V\u6f2a
sI3769
V\u7078
sI3770
V\u7357
sI3771
V\u73c5
sI3772
V\u73fa
sI3773
V\u7430
sI3774
V\u7459
sI3775
V\u74d2
sI3776
V\u753a
sI3777
V\u759a
sI3778
V\u75ca
sI3779
V\u7699
sI3780
V\u772f
sI3781
V\u7852
sI3782
V\u79e4
sI3783
V\u79f8
sI3784
V\u7cef
sI3785
V\u7eab
sI3786
V\u80ed
sI3787
V\u8146
sI3788
V\u814c
sI3789
V\u8151
sI3790
V\u828d
sI3791
V\u83ba
sI3792
V\u8469
sI3793
V\u86e4
sI3794
V\u8759
sI3795
V\u8760
sI3796
V\u8782
sI3797
V\u87d2
sI3798
V\u8859
sI3799
V\u8925
sI3800
V\u8bff
sI3801
V\u8d5d
sI3802
V\u8e6d
sI3803
V\u8e76
sI3804
V\u8fe6
sI3805
V\u911e
sI3806
V\u9131
sI3807
V\u918d
sI3808
V\u94a8
sI3809
V\u94ce
sI3810
V\u951a
sI3811
V\u952d
sI3812
V\u955b
sI3813
V\u961a
sI3814
V\u9885
sI3815
V\u9975
sI3816
V\u9a85
sI3817
V\u9a87
sI3818
V\u9b13
sI3819
V\u9c7f
sI3820
V\u4f84
sI3821
V\u5043
sI3822
V\u50a3
sI3823
V\u5315
sI3824
V\u531d
sI3825
V\u5457
sI3826
V\u5509
sI3827
V\u557b
sI3828
V\u55b3
sI3829
V\u5636
sI3830
V\u564c
sI3831
V\u56f1
sI3832
V\u579a
sI3833
V\u5a06
sI3834
V\u5b73
sI3835
V\u5ba5
sI3836
V\u5c09
sI3837
V\u5c15
sI3838
V\u5c94
sI3839
V\u5cb1
sI3840
V\u5f5d
sI3841
V\u6005
sI3842
V\u60bb
sI3843
V\u60c6
sI3844
V\u60f0
sI3845
V\u6175
sI3846
V\u62a0
sI3847
V\u62d7
sI3848
V\u62fd
sI3849
V\u634e
sI3850
V\u642a
sI3851
V\u6525
sI3852
V\u65d6
sI3853
V\u6631
sI3854
V\u6666
sI3855
V\u667e
sI3856
V\u6684
sI3857
V\u67d8
sI3858
V\u6854
sI3859
V\u6994
sI3860
V\u6bd9
sI3861
V\u6be1
sI3862
V\u6d19
sI3863
V\u6d63
sI3864
V\u6dde
sI3865
V\u6f7a
sI3866
V\u7080
sI3867
V\u7085
sI3868
V\u72c8
sI3869
V\u7315
sI3870
V\u7425
sI3871
V\u749f
sI3872
V\u75cd
sI3873
V\u761f
sI3874
V\u7656
sI3875
V\u765c
sI3876
V\u76bf
sI3877
V\u7708
sI3878
V\u777d
sI3879
V\u777e
sI3880
V\u7785
sI3881
V\u77a0
sI3882
V\u781a
sI3883
V\u7837
sI3884
V\u783a
sI3885
V\u78be
sI3886
V\u79e7
sI3887
V\u79ed
sI3888
V\u7a20
sI3889
V\u7a3c
sI3890
V\u7b03
sI3891
V\u7b4f
sI3892
V\u7b71
sI3893
V\u7bab
sI3894
V\u7bc6
sI3895
V\u7bd1
sI3896
V\u7cbc
sI3897
V\u7f04
sI3898
V\u7f0e
sI3899
V\u7f94
sI3900
V\u7fb8
sI3901
V\u817c
sI3902
V\u819b
sI3903
V\u81c3
sI3904
V\u8214
sI3905
V\u828b
sI3906
V\u82de
sI3907
V\u830e
sI3908
V\u8364
sI3909
V\u8386
sI3910
V\u8398
sI3911
V\u8511
sI3912
V\u853c
sI3913
V\u858f
sI3914
V\u85d5
sI3915
V\u86b6
sI3916
V\u8703
sI3917
V\u8717
sI3918
V\u871a
sI3919
V\u87fe
sI3920
V\u8862
sI3921
V\u891a
sI3922
V\u8ba5
sI3923
V\u8bb7
sI3924
V\u8bdb
sI3925
V\u8c1b
sI3926
V\u8d3b
sI3927
V\u8d43
sI3928
V\u8dda
sI3929
V\u8e4b
sI3930
V\u8fe9
sI3931
V\u905b
sI3932
V\u9074
sI3933
V\u90ac
sI3934
V\u90eb
sI3935
V\u9525
sI3936
V\u9539
sI3937
V\u9542
sI3938
V\u9602
sI3939
V\u9698
sI3940
V\u9977
sI3941
V\u9980
sI3942
V\u9981
sI3943
V\u998f
sI3944
V\u9afb
sI3945
V\u9e35
sI3946
V\u9e42
sI3947
V\u4ea5
sI3948
V\u4eb5
sI3949
V\u4f36
sI3950
V\u5014
sI3951
V\u527d
sI3952
V\u53a9
sI3953
V\u54ce
sI3954
V\u5511
sI3955
V\u553e
sI3956
V\u5567
sI3957
V\u55d1
sI3958
V\u55e4
sI3959
V\u568f
sI3960
V\u5773
sI3961
V\u57a0
sI3962
V\u5889
sI3963
V\u59b2
sI3964
V\u59be
sI3965
V\u5a75
sI3966
V\u5b05
sI3967
V\u5ba6
sI3968
V\u5c49
sI3969
V\u5ce6
sI3970
V\u5e1a
sI3971
V\u5eb6
sI3972
V\u5eff
sI3973
V\u5f29
sI3974
V\u5fcf
sI3975
V\u5fff
sI3976
V\u6078
sI3977
V\u60ed
sI3978
V\u6249
sI3979
V\u62bf
sI3980
V\u62f4
sI3981
V\u630e
sI3982
V\u6376
sI3983
V\u637a
sI3984
V\u63a3
sI3985
V\u63b0
sI3986
V\u6479
sI3987
V\u6482
sI3988
V\u6600
sI3989
V\u6886
sI3990
V\u68b5
sI3991
V\u6a35
sI3992
V\u6a84
sI3993
V\u6b7c
sI3994
V\u6cd4
sI3995
V\u6d31
sI3996
V\u6d5c
sI3997
V\u6d8e
sI3998
V\u6e0d
sI3999
V\u6e5f
sI4000
V\u6ee2
sI4001
V\u6fe0
sI4002
V\u6fee
sI4003
V\u7098
sI4004
V\u7118
sI4005
V\u712f
sI4006
V\u7166
sI4007
V\u71a8
sI4008
V\u71b9
sI4009
V\u71ce
sI4010
V\u72de
sI4011
V\u72f0
sI4012
V\u733e
sI4013
V\u7350
sI4014
V\u74ef
sI4015
V\u752d
sI4016
V\u75b1
sI4017
V\u77a5
sI4018
V\u77dc
sI4019
V\u785a
sI4020
V\u7889
sI4021
V\u78a3
sI4022
V\u7934
sI4023
V\u796f
sI4024
V\u7abf
sI4025
V\u7b06
sI4026
V\u7b94
sI4027
V\u7c9f
sI4028
V\u8012
sI4029
V\u8171
sI4030
V\u82d5
sI4031
V\u832c
sI4032
V\u835e
sI4033
V\u8424
sI4034
V\u8713
sI4035
V\u87b3
sI4036
V\u87c6
sI4037
V\u8815
sI4038
V\u8892
sI4039
V\u8baa
sI4040
V\u8bcb
sI4041
V\u8bcf
sI4042
V\u8bd9
sI4043
V\u8be9
sI4044
V\u8bec
sI4045
V\u8d30
sI4046
V\u8d5f
sI4047
V\u8e39
sI4048
V\u8e6c
sI4049
V\u8f8d
sI4050
V\u8fe4
sI4051
V\u9122
sI4052
V\u9149
sI4053
V\u9170
sI4054
V\u91ba
sI4055
V\u92a7
sI4056
V\u94c9
sI4057
V\u94db
sI4058
V\u94e8
sI4059
V\u953a
sI4060
V\u956f
sI4061
V\u9606
sI4062
V\u9611
sI4063
V\u9616
sI4064
V\u9619
sI4065
V\u970f
sI4066
V\u9785
sI4067
V\u988c
sI4068
V\u98a2
sI4069
V\u98a8
sI4070
V\u9a81
sI4071
V\u9aa0
sI4072
V\u9ab0
sI4073
V\u9e4a
sI4074
V\u9e51
sI4075
V\u4edf
sI4076
V\u4ee8
sI4077
V\u4f1d
sI4078
V\u4f8f
sI4079
V\u53e9
sI4080
V\u53f5
sI4081
V\u540f
sI4082
V\u542e
sI4083
V\u5494
sI4084
V\u5514
sI4085
V\u551b
sI4086
V\u5520
sI4087
V\u555c
sI4088
V\u558b
sI4089
V\u55b1
sI4090
V\u55e1
sI4091
V\u5639
sI4092
V\u563f
sI4093
V\u56e1
sI4094
V\u5768
sI4095
V\u57a1
sI4096
V\u57ad
sI4097
V\u57ed
sI4098
V\u5803
sI4099
V\u587e
sI4100
V\u59e3
sI4101
V\u5a11
sI4102
V\u5a13
sI4103
V\u5ad6
sI4104
V\u5ae6
sI4105
V\u5b62
sI4106
V\u5bee
sI4107
V\u5d1a
sI4108
V\u5d4a
sI4109
V\u5d4b
sI4110
V\u5d82
sI4111
V\u5e3c
sI4112
V\u5e87
sI4113
V\u6006
sI4114
V\u607b
sI4115
V\u60af
sI4116
V\u618e
sI4117
V\u6194
sI4118
V\u6248
sI4119
V\u62c4
sI4120
V\u645e
sI4121
V\u64ae
sI4122
V\u6654
sI4123
V\u6777
sI4124
V\u6787
sI4125
V\u678b
sI4126
V\u6800
sI4127
V\u6844
sI4128
V\u6862
sI4129
V\u6901
sI4130
V\u6942
sI4131
V\u6954
sI4132
V\u695e
sI4133
V\u6a47
sI4134
V\u6b46
sI4135
V\u6b89
sI4136
V\u6c19
sI4137
V\u6c21
sI4138
V\u6c69
sI4139
V\u6c8f
sI4140
V\u6db8
sI4141
V\u6ee6
sI4142
V\u6f78
sI4143
V\u6fe1
sI4144
V\u70c3
sI4145
V\u73d0
sI4146
V\u7428
sI4147
V\u749c
sI4148
V\u75de
sI4149
V\u75e3
sI4150
V\u75fc
sI4151
V\u7601
sI4152
V\u762a
sI4153
V\u77ad
sI4154
V\u7898
sI4155
V\u789a
sI4156
V\u78b4
sI4157
V\u7949
sI4158
V\u7a37
sI4159
V\u7b19
sI4160
V\u7bdd
sI4161
V\u7be1
sI4162
V\u7bea
sI4163
V\u7cc5
sI4164
V\u7eb0
sI4165
V\u7ebe
sI4166
V\u7edb
sI4167
V\u7ee2
sI4168
V\u7f25
sI4169
V\u7f54
sI4170
V\u7fca
sI4171
V\u7ff1
sI4172
V\u80c4
sI4173
V\u812f
sI4174
V\u81fc
sI4175
V\u821b
sI4176
V\u822b
sI4177
V\u8237
sI4178
V\u826e
sI4179
V\u83a0
sI4180
V\u84e5
sI4181
V\u8543
sI4182
V\u8682
sI4183
V\u86df
sI4184
V\u86f0
sI4185
V\u870d
sI4186
V\u8845
sI4187
V\u89ca
sI4188
V\u89ce
sI4189
V\u8bfd
sI4190
V\u8c24
sI4191
V\u8e0c
sI4192
V\u8e52
sI4193
V\u8e87
sI4194
V\u8f98
sI4195
V\u9035
sI4196
V\u9068
sI4197
V\u90a8
sI4198
V\u90b0
sI4199
V\u90f8
sI4200
V\u9157
sI4201
V\u92ae
sI4202
V\u94a3
sI4203
V\u94c6
sI4204
V\u94e4
sI4205
V\u9555
sI4206
V\u95d8
sI4207
V\u9708
sI4208
V\u97ed
sI4209
V\u9889
sI4210
V\u989a
sI4211
V\u98a7
sI4212
V\u992e
sI4213
V\u996c
sI4214
V\u9995
sI4215
V\u9ab8
sI4216
V\u9c91
sI4217
V\u9ca4
sI4218
V\u9e66
sI4219
V\u9e73
sI4220
V\u9f88
sI4221
V\u4e10
sI4222
V\u4f2b
sI4223
V\u501c
sI4224
V\u50a5
sI4225
V\u5197
sI4226
V\u51bd
sI4227
V\u51c7
sI4228
V\u52be
sI4229
V\u538d
sI4230
V\u53df
sI4231
V\u5420
sI4232
V\u542d
sI4233
V\u545b
sI4234
V\u545c
sI4235
V\u547b
sI4236
V\u5482
sI4237
V\u549b
sI4238
V\u54d0
sI4239
V\u54fc
sI4240
V\u5522
sI4241
V\u5533
sI4242
V\u55ea
sI4243
V\u55f2
sI4244
V\u5662
sI4245
V\u568e
sI4246
V\u5693
sI4247
V\u56ff
sI4248
V\u5729
sI4249
V\u572a
sI4250
V\u58d5
sI4251
V\u599e
sI4252
V\u59b3
sI4253
V\u5a3c
sI4254
V\u5a7a
sI4255
V\u5ae1
sI4256
V\u5b17
sI4257
V\u5b40
sI4258
V\u5b6a
sI4259
V\u5b93
sI4260
V\u5c05
sI4261
V\u5cc7
sI4262
V\u5dff
sI4263
V\u5e1b
sI4264
V\u5e42
sI4265
V\u5e44
sI4266
V\u5e54
sI4267
V\u5ea0
sI4268
V\u5eb5
sI4269
V\u5f57
sI4270
V\u5f87
sI4271
V\u5f89
sI4272
V\u5f9c
sI4273
V\u5ff8
sI4274
V\u6002
sI4275
V\u6026
sI4276
V\u6029
sI4277
V\u6042
sI4278
V\u60b4
sI4279
V\u60da
sI4280
V\u60f4
sI4281
V\u6115
sI4282
V\u6120
sI4283
V\u612b
sI4284
V\u61cb
sI4285
V\u620c
sI4286
V\u622e
sI4287
V\u622f
sI4288
V\u62a1
sI4289
V\u6371
sI4290
V\u6382
sI4291
V\u6387
sI4292
V\u63ae
sI4293
V\u63e9
sI4294
V\u6414
sI4295
V\u6421
sI4296
V\u6441
sI4297
V\u64a9
sI4298
V\u64b7
sI4299
V\u64c0
sI4300
V\u64de
sI4301
V\u652b
sI4302
V\u6538
sI4303
V\u6635
sI4304
V\u6636
sI4305
V\u6642
sI4306
V\u665e
sI4307
V\u66b9
sI4308
V\u66dc
sI4309
V\u6773
sI4310
V\u67d1
sI4311
V\u6840
sI4312
V\u6860
sI4313
V\u6867
sI4314
V\u68a2
sI4315
V\u6963
sI4316
V\u6979
sI4317
V\u6a02
sI4318
V\u6a7c
sI4319
V\u6aa9
sI4320
V\u6bfd
sI4321
V\u6c6d
sI4322
V\u6c74
sI4323
V\u6cad
sI4324
V\u6cee
sI4325
V\u6d9e
sI4326
V\u6dd6
sI4327
V\u6de6
sI4328
V\u6e4d
sI4329
V\u6e4e
sI4330
V\u6e6e
sI4331
V\u6ea5
sI4332
V\u6ea7
sI4333
V\u6ec2
sI4334
V\u6f66
sI4335
V\u6f8d
sI4336
V\u6fd1
sI4337
V\u70e9
sI4338
V\u70f7
sI4339
V\u7116
sI4340
V\u7121
sI4341
V\u7266
sI4342
V\u7292
sI4343
V\u7352
sI4344
V\u737e
sI4345
V\u73e9
sI4346
V\u7407
sI4347
V\u740d
sI4348
V\u7435
sI4349
V\u74e2
sI4350
V\u74ee
sI4351
V\u757f
sI4352
V\u75d4
sI4353
V\u75eb
sI4354
V\u75f1
sI4355
V\u7622
sI4356
V\u768e
sI4357
V\u7691
sI4358
V\u76c5
sI4359
V\u776c
sI4360
V\u7800
sI4361
V\u7827
sI4362
V\u783c
sI4363
V\u787c
sI4364
V\u7a39
sI4365
V\u7a95
sI4366
V\u7aa8
sI4367
V\u7cb1
sI4368
V\u7cb3
sI4369
V\u7eeb
sI4370
V\u7f08
sI4371
V\u7f19
sI4372
V\u7f58
sI4373
V\u7fb2
sI4374
V\u7fcc
sI4375
V\u8037
sI4376
V\u80eb
sI4377
V\u80ef
sI4378
V\u80f4
sI4379
V\u810d
sI4380
V\u8132
sI4381
V\u8153
sI4382
V\u816d
sI4383
V\u8174
sI4384
V\u8284
sI4385
V\u82a1
sI4386
V\u82a5
sI4387
V\u82aa
sI4388
V\u82e3
sI4389
V\u830f
sI4390
V\u8358
sI4391
V\u835a
sI4392
V\u8368
sI4393
V\u836a
sI4394
V\u839c
sI4395
V\u83b4
sI4396
V\u83d6
sI4397
V\u8431
sI4398
V\u8438
sI4399
V\u847a
sI4400
V\u853a
sI4401
V\u8568
sI4402
V\u85d0
sI4403
V\u85dc
sI4404
V\u85ff
sI4405
V\u864f
sI4406
V\u8693
sI4407
V\u86af
sI4408
V\u86c6
sI4409
V\u86ca
sI4410
V\u86f9
sI4411
V\u8708
sI4412
V\u8737
sI4413
V\u873b
sI4414
V\u886e
sI4415
V\u8a8a
sI4416
V\u8bab
sI4417
V\u8bc5
sI4418
V\u8be3
sI4419
V\u8be8
sI4420
V\u8c0c
sI4421
V\u8c36
sI4422
V\u8d32
sI4423
V\u8d61
sI4424
V\u8e2e
sI4425
V\u8e69
sI4426
V\u9036
sI4427
V\u9062
sI4428
V\u908b
sI4429
V\u909d
sI4430
V\u90ba
sI4431
V\u90e2
sI4432
V\u90f4
sI4433
V\u914a
sI4434
V\u9169
sI4435
V\u91a3
sI4436
V\u9495
sI4437
V\u949c
sI4438
V\u94d6
sI4439
V\u94e3
sI4440
V\u9506
sI4441
V\u952b
sI4442
V\u9534
sI4443
V\u9537
sI4444
V\u9549
sI4445
V\u9570
sI4446
V\u9577
sI4447
V\u958b
sI4448
V\u965f
sI4449
V\u967d
sI4450
V\u968d
sI4451
V\u975b
sI4452
V\u9765
sI4453
V\u9798
sI4454
V\u982b
sI4455
V\u989b
sI4456
V\u98a6
sI4457
V\u9955
sI4458
V\u9968
sI4459
V\u9984
sI4460
V\u998b
sI4461
V\u9a9b
sI4462
V\u9a9c
sI4463
V\u9a9e
sI4464
V\u9aa1
sI4465
V\u9b03
sI4466
V\u9b1f
sI4467
V\u9ccd
sI4468
V\u9e49
sI4469
V\u4e15
sI4470
V\u4ec3
sI4471
V\u4ef5
sI4472
V\u4f6f
sI4473
V\u4faa
sI4474
V\u4fda
sI4475
V\u4ff8
sI4476
V\u500f
sI4477
V\u502d
sI4478
V\u5041
sI4479
V\u50a9
sI4480
V\u510b
sI4481
V\u5208
sI4482
V\u520d
sI4483
V\u5225
sI4484
V\u5241
sI4485
V\u5250
sI4486
V\u525c
sI4487
V\u52bc
sI4488
V\u52d5
sI4489
V\u536f
sI4490
V\u53fc
sI4491
V\u53fd
sI4492
V\u5412
sI4493
V\u544b
sI4494
V\u5452
sI4495
V\u5464
sI4496
V\u5481
sI4497
V\u54bb
sI4498
V\u54c6
sI4499
V\u54dd
sI4500
V\u54e7
sI4501
V\u5501
sI4502
V\u5527
sI4503
V\u5530
sI4504
V\u5544
sI4505
V\u5555
sI4506
V\u556a
sI4507
V\u5570
sI4508
V\u5576
sI4509
V\u5577
sI4510
V\u5594
sI4511
V\u5599
sI4512
V\u55bd
sI4513
V\u55d4
sI4514
V\u55e6
sI4515
V\u55f7
sI4516
V\u5601
sI4517
V\u564e
sI4518
V\u5658
sI4519
V\u566b
sI4520
V\u5676
sI4521
V\u567b
sI4522
V\u569f
sI4523
V\u56d4
sI4524
V\u56df
sI4525
V\u577b
sI4526
V\u578c
sI4527
V\u57a9
sI4528
V\u57d7
sI4529
V\u5807
sI4530
V\u5811
sI4531
V\u5834
sI4532
V\u5880
sI4533
V\u58d1
sI4534
V\u5919
sI4535
V\u5944
sI4536
V\u5958
sI4537
V\u59a4
sI4538
V\u59aa
sI4539
V\u5a40
sI4540
V\u5a4a
sI4541
V\u5a73
sI4542
V\u5a76
sI4543
V\u5ad2
sI4544
V\u5ad4
sI4545
V\u5b44
sI4546
V\u5b6c
sI4547
V\u5b71
sI4548
V\u5b7a
sI4549
V\u5bae
sI4550
V\u5c13
sI4551
V\u5c4c
sI4552
V\u5cac
sI4553
V\u5cbf
sI4554
V\u5ce3
sI4555
V\u5d3d
sI4556
V\u5d47
sI4557
V\u5d6c
sI4558
V\u5df3
sI4559
V\u5e77
sI4560
V\u5e96
sI4561
V\u5ebe
sI4562
V\u5f3c
sI4563
V\u5f82
sI4564
V\u5fb3
sI4565
V\u5fc9
sI4566
V\u5fdd
sI4567
V\u5ffe
sI4568
V\u607f
sI4569
V\u60aa
sI4570
V\u60b1
sI4571
V\u61b6
sI4572
V\u620a
sI4573
V\u626a
sI4574
V\u631e
sI4575
V\u634b
sI4576
V\u636d
sI4577
V\u6396
sI4578
V\u63b3
sI4579
V\u63b8
sI4580
V\u63cd
sI4581
V\u6410
sI4582
V\u643d
sI4583
V\u6448
sI4584
V\u655d
sI4585
V\u6669
sI4586
V\u669d
sI4587
V\u6710
sI4588
V\u6715
sI4589
V\u67d2
sI4590
V\u67da
sI4591
V\u6845
sI4592
V\u685c
sI4593
V\u68e3
sI4594
V\u690b
sI4595
V\u6934
sI4596
V\u699b
sI4597
V\u69a7
sI4598
V\u69ab
sI4599
V\u6a3d
sI4600
V\u6b59
sI4601
V\u6b69
sI4602
V\u6b73
sI4603
V\u6b84
sI4604
V\u6c10
sI4605
V\u6c17
sI4606
V\u6c95
sI4607
V\u6ca3
sI4608
V\u6ce0
sI4609
V\u6cf1
sI4610
V\u6cfa
sI4611
V\u6d35
sI4612
V\u6d49
sI4613
V\u6dc5
sI4614
V\u6dda
sI4615
V\u6e1a
sI4616
V\u6e25
sI4617
V\u6e54
sI4618
V\u6e98
sI4619
V\u6e9f
sI4620
V\u6ec1
sI4621
V\u6ed8
sI4622
V\u6f09
sI4623
V\u6f15
sI4624
V\u6f2f
sI4625
V\u6fa7
sI4626
V\u6fc2
sI4627
V\u7094
sI4628
V\u709d
sI4629
V\u70b7
sI4630
V\u70ba
sI4631
V\u70bb
sI4632
V\u7119
sI4633
V\u714a
sI4634
V\u7159
sI4635
V\u7168
sI4636
V\u71e7
sI4637
V\u724d
sI4638
V\u7287
sI4639
V\u728d
sI4640
V\u72d2
sI4641
V\u7317
sI4642
V\u73b7
sI4643
V\u73c8
sI4644
V\u73c9
sI4645
V\u740e
sI4646
V\u7464
sI4647
V\u7525
sI4648
V\u752a
sI4649
V\u7583
sI4650
V\u75b8
sI4651
V\u75bd
sI4652
V\u7600
sI4653
V\u7620
sI4654
V\u7663
sI4655
V\u76c2
sI4656
V\u76f9
sI4657
V\u7762
sI4658
V\u7783
sI4659
V\u778c
sI4660
V\u7791
sI4661
V\u77fd
sI4662
V\u7823
sI4663
V\u78ec
sI4664
V\u794e
sI4665
V\u7950
sI4666
V\u795a
sI4667
V\u795f
sI4668
V\u7a1e
sI4669
V\u7a88
sI4670
V\u7ad1
sI4671
V\u7ae6
sI4672
V\u7b04
sI4673
V\u7b2b
sI4674
V\u7b5c
sI4675
V\u7b75
sI4676
V\u7b7c
sI4677
V\u7ba9
sI4678
V\u7bd3
sI4679
V\u7c0b
sI4680
V\u7c0c
sI4681
V\u7d76
sI4682
V\u7e82
sI4683
V\u7ea3
sI4684
V\u7ecc
sI4685
V\u7efe
sI4686
V\u7f30
sI4687
V\u7fe6
sI4688
V\u8004
sI4689
V\u800b
sI4690
V\u8052
sI4691
V\u807f
sI4692
V\u80cd
sI4693
V\u8191
sI4694
V\u81ca
sI4695
V\u81ec
sI4696
V\u8222
sI4697
V\u8238
sI4698
V\u82a9
sI4699
V\u82d3
sI4700
V\u82dc
sI4701
V\u8340
sI4702
V\u83cf
sI4703
V\u83d8
sI4704
V\u83e1
sI4705
V\u846d
sI4706
V\u84ff
sI4707
V\u852b
sI4708
V\u8537
sI4709
V\u853b
sI4710
V\u85ae
sI4711
V\u85d3
sI4712
V\u8605
sI4713
V\u869d
sI4714
V\u86ed
sI4715
V\u870a
sI4716
V\u8722
sI4717
V\u8748
sI4718
V\u8757
sI4719
V\u87af
sI4720
V\u87d1
sI4721
V\u87e0
sI4722
V\u8832
sI4723
V\u887e
sI4724
V\u8884
sI4725
V\u88c6
sI4726
V\u88fe
sI4727
V\u8913
sI4728
V\u8930
sI4729
V\u8a3e
sI4730
V\u8a9e
sI4731
V\u8aac
sI4732
V\u8bc3
sI4733
V\u8bd2
sI4734
V\u8c0f
sI4735
V\u8c12
sI4736
V\u8c17
sI4737
V\u8c25
sI4738
V\u8c2f
sI4739
V\u8c4c
sI4740
V\u8d4a
sI4741
V\u8d73
sI4742
V\u8e42
sI4743
V\u8e8f
sI4744
V\u8fe2
sI4745
V\u9004
sI4746
V\u9026
sI4747
V\u9041
sI4748
V\u9051
sI4749
V\u9054
sI4750
V\u907d
sI4751
V\u9097
sI4752
V\u90cf
sI4753
V\u9139
sI4754
V\u9244
sI4755
V\u938f
sI4756
V\u94a1
sI4757
V\u94ba
sI4758
V\u94d0
sI4759
V\u94e0
sI4760
V\u94f7
sI4761
V\u9504
sI4762
V\u954c
sI4763
V\u9557
sI4764
V\u9573
sI4765
V\u95f1
sI4766
V\u9604
sI4767
V\u960a
sI4768
V\u9672
sI4769
V\u968a
sI4770
V\u96ce
sI4771
V\u96f2
sI4772
V\u97a3
sI4773
V\u97ea
sI4774
V\u97eb
sI4775
V\u98e7
sI4776
V\u98e8
sI4777
V\u9a6e
sI4778
V\u9aa2
sI4779
V\u9aba
sI4780
V\u9b51
sI4781
V\u9c9f
sI4782
V\u9ca2
sI4783
V\u9cd7
sI4784
V\u9cdd
sI4785
V\u9e20
sI4786
V\u9e2c
sI4787
V\u9e3e
sI4788
V\u9e4c
sI4789
V\u9ecd
sI4790
V\u9edd
sI4791
V\u9ee0
sI4792
V\u9f3e
sI4793
V\u9f87
sI4794
V\u9f8b
sI4795
V\u4e1f
sI4796
V\u4e36
sI4797
V\u4e47
sI4798
V\u4e82
sI4799
V\u4e8a
sI4800
V\u4e9c
sI4801
V\u4ec4
sI4802
V\u4ec9
sI4803
V\u4edd
sI4804
V\u4ede
sI4805
V\u4ee1
sI4806
V\u4eeb
sI4807
V\u4eee
sI4808
V\u4f00
sI4809
V\u4f43
sI4810
V\u4f5a
sI4811
V\u4f5d
sI4812
V\u4f61
sI4813
V\u4f7b
sI4814
V\u4fa9
sI4815
V\u4fce
sI4816
V\u4fdf
sI4817
V\u4fe2
sI4818
V\u4fe3
sI4819
V\u4ff6
sI4820
V\u4ffe
sI4821
V\u500b
sI4822
V\u5020
sI4823
V\u5028
sI4824
V\u502c
sI4825
V\u5064
sI4826
V\u5072
sI4827
V\u507b
sI4828
V\u50b3
sI4829
V\u512a
sI4830
V\u5167
sI4831
V\u5186
sI4832
V\u51a2
sI4833
V\u51bc
sI4834
V\u524c
sI4835
V\u524e
sI4836
V\u5263
sI4837
V\u5287
sI4838
V\u52f8
sI4839
V\u5326
sI4840
V\u53c1
sI4841
V\u53fb
sI4842
V\u5429
sI4843
V\u5431
sI4844
V\u5443
sI4845
V\u5445
sI4846
V\u5456
sI4847
V\u546a
sI4848
V\u54a3
sI4849
V\u54bf
sI4850
V\u54c2
sI4851
V\u54d2
sI4852
V\u54e1
sI4853
V\u5506
sI4854
V\u5541
sI4855
V\u5550
sI4856
V\u5556
sI4857
V\u556b
sI4858
V\u5575
sI4859
V\u557e
sI4860
V\u559f
sI4861
V\u55c4
sI4862
V\u55ce
sI4863
V\u55d6
sI4864
V\u55dd
sI4865
V\u55df
sI4866
V\u55e8
sI4867
V\u55ef
sI4868
V\u55f3
sI4869
V\u560c
sI4870
V\u562d
sI4871
V\u5641
sI4872
V\u5652
sI4873
V\u5657
sI4874
V\u5659
sI4875
V\u5664
sI4876
V\u567a
sI4877
V\u56d7
sI4878
V\u56e3
sI4879
V\u56e7
sI4880
V\u56eb
sI4881
V\u56f5
sI4882
V\u570c
sI4883
V\u571c
sI4884
V\u5734
sI4885
V\u5762
sI4886
V\u576d
sI4887
V\u5785
sI4888
V\u579b
sI4889
V\u57af
sI4890
V\u57b2
sI4891
V\u57c2
sI4892
V\u57d5
sI4893
V\u57f8
sI4894
V\u581e
sI4895
V\u5831
sI4896
V\u5859
sI4897
V\u5875
sI4898
V\u5892
sI4899
V\u58bc
sI4900
V\u58ec
sI4901
V\u5922
sI4902
V\u5925
sI4903
V\u5998
sI4904
V\u59ab
sI4905
V\u59d2
sI4906
V\u59e0
sI4907
V\u59f9
sI4908
V\u5a09
sI4909
V\u5a32
sI4910
V\u5ad8
sI4911
V\u5adc
sI4912
V\u5b34
sI4913
V\u5b4b
sI4914
V\u5b51
sI4915
V\u5b53
sI4916
V\u5b5b
sI4917
V\u5ba8
sI4918
V\u5bdb
sI4919
V\u5bf6
sI4920
V\u5bfe
sI4921
V\u5c3b
sI4922
V\u5c50
sI4923
V\u5c59
sI4924
V\u5c6c
sI4925
V\u5ca1
sI4926
V\u5ca2
sI4927
V\u5cab
sI4928
V\u5cba
sI4929
V\u5cc1
sI4930
V\u5ccb
sI4931
V\u5cd2
sI4932
V\u5d01
sI4933
V\u5d06
sI4934
V\u5d24
sI4935
V\u5d27
sI4936
V\u5d6f
sI4937
V\u5d99
sI4938
V\u5d9d
sI4939
V\u5de3
sI4940
V\u5dfd
sI4941
V\u5e0f
sI4942
V\u5e2b
sI4943
V\u5e30
sI4944
V\u5e7a
sI4945
V\u5e88
sI4946
V\u5e8b
sI4947
V\u5e91
sI4948
V\u5eb9
sI4949
V\u5eea
sI4950
V\u5f10
sI4951
V\u5f22
sI4952
V\u5f2d
sI4953
V\u5f67
sI4954
V\u5f8c
sI4955
V\u5f95
sI4956
V\u5fa9
sI4957
V\u5fb5
sI4958
V\u5fc4
sI4959
V\u5fd2
sI4960
V\u5fd6
sI4961
V\u5fde
sI4962
V\u5fe4
sI4963
V\u5fea
sI4964
V\u6035
sI4965
V\u6038
sI4966
V\u603f
sI4967
V\u6041
sI4968
V\u606b
sI4969
V\u60d8
sI4970
V\u6182
sI4971
V\u6190
sI4972
V\u61a4
sI4973
V\u61b7
sI4974
V\u6222
sI4975
V\u6225
sI4976
V\u629e
sI4977
V\u62c8
sI4978
V\u6308
sI4979
V\u6339
sI4980
V\u6368
sI4981
V\u63c6
sI4982
V\u63cc
sI4983
V\u63da
sI4984
V\u63ef
sI4985
V\u63f8
sI4986
V\u6425
sI4987
V\u6426
sI4988
V\u6470
sI4989
V\u647a
sI4990
V\u6483
sI4991
V\u6485
sI4992
V\u64a5
sI4993
V\u64b8
sI4994
V\u64b9
sI4995
V\u64ba
sI4996
V\u64d7
sI4997
V\u64d8
sI4998
V\u64da
sI4999
V\u6555
sI5000
V\u6557
sI5001
V\u659b
sI5002
V\u65ab
sI5003
V\u65ac
sI5004
V\u65c3
sI5005
V\u65c6
sI5006
V\u65d2
sI5007
V\u65eb
sI5008
V\u65f0
sI5009
V\u6607
sI5010
V\u661d
sI5011
V\u662c
sI5012
V\u6633
sI5013
V\u6634
sI5014
V\u6641
sI5015
V\u664c
sI5016
V\u6677
sI5017
V\u6681
sI5018
V\u66bb
sI5019
V\u66c8
sI5020
V\u66db
sI5021
V\u6772
sI5022
V\u6775
sI5023
V\u679e
sI5024
V\u67b3
sI5025
V\u67b7
sI5026
V\u67c1
sI5027
V\u67cd
sI5028
V\u67e2
sI5029
V\u680e
sI5030
V\u682d
sI5031
V\u684e
sI5032
V\u6857
sI5033
V\u6861
sI5034
V\u686b
sI5035
V\u6877
sI5036
V\u6883
sI5037
V\u688f
sI5038
V\u68c2
sI5039
V\u68c5
sI5040
V\u68f0
sI5041
V\u6900
sI5042
V\u6910
sI5043
V\u6924
sI5044
V\u6939
sI5045
V\u6975
sI5046
V\u6980
sI5047
V\u6989
sI5048
V\u69c3
sI5049
V\u69d8
sI5050
V\u6a2f
sI5051
V\u6a3e
sI5052
V\u6a7e
sI5053
V\u6aab
sI5054
V\u6ac6
sI5055
V\u6b24
sI5056
V\u6b61
sI5057
V\u6b92
sI5058
V\u6b93
sI5059
V\u6bce
sI5060
V\u6bd8
sI5061
V\u6bf3
sI5062
V\u6c23
sI5063
V\u6c29
sI5064
V\u6c3a
sI5065
V\u6c4a
sI5066
V\u6c7a
sI5067
V\u6c85
sI5068
V\u6c86
sI5069
V\u6ca4
sI5070
V\u6cac
sI5071
V\u6cc8
sI5072
V\u6cef
sI5073
V\u6d2e
sI5074
V\u6d39
sI5075
V\u6d48
sI5076
V\u6d4c
sI5077
V\u6d60
sI5078
V\u6d61
sI5079
V\u6d7c
sI5080
V\u6dab
sI5081
V\u6dbf
sI5082
V\u6ddd
sI5083
V\u6dec
sI5084
V\u6e3c
sI5085
V\u6e80
sI5086
V\u6e8f
sI5087
V\u6ebd
sI5088
V\u6ec5
sI5089
V\u6ed3
sI5090
V\u6ed7
sI5091
V\u6edf
sI5092
V\u6f2d
sI5093
V\u6f4f
sI5094
V\u6f72
sI5095
V\u6f81
sI5096
V\u6f94
sI5097
V\u6fb9
sI5098
V\u6fc9
sI5099
V\u6fef
sI5100
V\u7061
sI5101
V\u7095
sI5102
V\u70ec
sI5103
V\u7117
sI5104
V\u711c
sI5105
V\u7145
sI5106
V\u716f
sI5107
V\u7196
sI5108
V\u71b1
sI5109
V\u71ca
sI5110
V\u71cd
sI5111
V\u71ee
sI5112
V\u721a
sI5113
V\u7224
sI5114
V\u7230
sI5115
V\u723b
sI5116
V\u7252
sI5117
V\u7260
sI5118
V\u7284
sI5119
V\u728a
sI5120
V\u72a0
sI5121
V\u72a8
sI5122
V\u72cd
sI5123
V\u72ce
sI5124
V\u72dd
sI5125
V\u72fb
sI5126
V\u7325
sI5127
V\u7360
sI5128
V\u736c
sI5129
V\u73d9
sI5130
V\u73e3
sI5131
V\u73f2
sI5132
V\u73fe
sI5133
V\u741a
sI5134
V\u742c
sI5135
V\u742e
sI5136
V\u7460
sI5137
V\u7498
sI5138
V\u749e
sI5139
V\u74a9
sI5140
V\u74c8
sI5141
V\u74dd
sI5142
V\u74f4
sI5143
V\u7511
sI5144
V\u752f
sI5145
V\u753e
sI5146
V\u7548
sI5147
V\u754a
sI5148
V\u7579
sI5149
V\u7596
sI5150
V\u75c2
sI5151
V\u75e2
sI5152
V\u75e4
sI5153
V\u75e7
sI5154
V\u7604
sI5155
V\u7607
sI5156
V\u7615
sI5157
V\u7617
sI5158
V\u7638
sI5159
V\u7640
sI5160
V\u764b
sI5161
V\u7667
sI5162
V\u767a
sI5163
V\u7688
sI5164
V\u768f
sI5165
V\u76e5
sI5166
V\u76f0
sI5167
V\u76f1
sI5168
V\u7719
sI5169
V\u772d
sI5170
V\u77fe
sI5171
V\u782c
sI5172
V\u7830
sI5173
V\u783b
sI5174
V\u7847
sI5175
V\u784c
sI5176
V\u7850
sI5177
V\u7856
sI5178
V\u7877
sI5179
V\u7887
sI5180
V\u7893
sI5181
V\u789b
sI5182
V\u78ba
sI5183
V\u78c0
sI5184
V\u78e1
sI5185
V\u7921
sI5186
V\u7929
sI5187
V\u793d
sI5188
V\u7942
sI5189
V\u7958
sI5190
V\u795c
sI5191
V\u7962
sI5192
V\u7988
sI5193
V\u7a14
sI5194
V\u7a71
sI5195
V\u7aa0
sI5196
V\u7adc
sI5197
V\u7afd
sI5198
V\u7b1e
sI5199
V\u7b20
sI5200
V\u7b25
sI5201
V\u7b2d
sI5202
V\u7b2e
sI5203
V\u7b33
sI5204
V\u7b3a
sI5205
V\u7b5a
sI5206
V\u7b95
sI5207
V\u7b9d
sI5208
V\u7bac
sI5209
V\u7bb4
sI5210
V\u7bb5
sI5211
V\u7bc0
sI5212
V\u7bd9
sI5213
V\u7be0
sI5214
V\u7be5
sI5215
V\u7c01
sI5216
V\u7c2a
sI5217
V\u7c2b
sI5218
V\u7ccc
sI5219
V\u7cec
sI5220
V\u7d00
sI5221
V\u7d05
sI5222
V\u7d41
sI5223
V\u7d42
sI5224
V\u7d49
sI5225
V\u7d50
sI5226
V\u7d55
sI5227
V\u7d68
sI5228
V\u7d9f
sI5229
V\u7dd1
sI5230
V\u7de9
sI5231
V\u7e3b
sI5232
V\u7e8c
sI5233
V\u7ea5
sI5234
V\u7ea8
sI5235
V\u7ecb
sI5236
V\u7ee1
sI5237
V\u7ee6
sI5238
V\u7ef6
sI5239
V\u7efa
sI5240
V\u7f03
sI5241
V\u7f07
sI5242
V\u7f11
sI5243
V\u7f1b
sI5244
V\u7f1f
sI5245
V\u7f26
sI5246
V\u7f42
sI5247
V\u7f45
sI5248
V\u7f5f
sI5249
V\u7fa9
sI5250
V\u7fae
sI5251
V\u7faf
sI5252
V\u7fb4
sI5253
V\u7fce
sI5254
V\u8019
sI5255
V\u8026
sI5256
V\u802a
sI5257
V\u8035
sI5258
V\u804d
sI5259
V\u8069
sI5260
V\u8072
sI5261
V\u809f
sI5262
V\u80ae
sI5263
V\u80b1
sI5264
V\u80bc
sI5265
V\u80db
sI5266
V\u80e4
sI5267
V\u8118
sI5268
V\u815a
sI5269
V\u815e
sI5270
V\u8188
sI5271
V\u81a5
sI5272
V\u81ad
sI5273
V\u81d5
sI5274
V\u81d9
sI5275
V\u81e8
sI5276
V\u81fa
sI5277
V\u8200
sI5278
V\u8207
sI5279
V\u8208
sI5280
V\u824f
sI5281
V\u828f
sI5282
V\u82a8
sI5283
V\u82b4
sI5284
V\u82c8
sI5285
V\u82cb
sI5286
V\u82d2
sI5287
V\u82dd
sI5288
V\u82eb
sI5289
V\u82fb
sI5290
V\u8334
sI5291
V\u8344
sI5292
V\u834f
sI5293
V\u8360
sI5294
V\u8365
sI5295
V\u83c2
sI5296
V\u83eb
sI5297
V\u83ef
sI5298
V\u83f0
sI5299
V\u83f9
sI5300
V\u83fd
sI5301
V\u8401
sI5302
V\u842c
sI5303
V\u8449
sI5304
V\u8451
sI5305
V\u845a
sI5306
V\u8483
sI5307
V\u84a8
sI5308
V\u84bd
sI5309
V\u84d1
sI5310
V\u84e6
sI5311
V\u851f
sI5312
V\u8539
sI5313
V\u8564
sI5314
V\u8585
sI5315
V\u85cd
sI5316
V\u8662
sI5317
V\u866c
sI5318
V\u8671
sI5319
V\u867b
sI5320
V\u868d
sI5321
V\u8699
sI5322
V\u86a2
sI5323
V\u86a3
sI5324
V\u86a4
sI5325
V\u86a9
sI5326
V\u86b1
sI5327
V\u86b5
sI5328
V\u86ce
sI5329
V\u86da
sI5330
V\u86f3
sI5331
V\u86f4
sI5332
V\u8709
sI5333
V\u8731
sI5334
V\u8765
sI5335
V\u8785
sI5336
V\u8788
sI5337
V\u87a2
sI5338
V\u8813
sI5339
V\u8821
sI5340
V\u8839
sI5341
V\u885e
sI5342
V\u8869
sI5343
V\u8888
sI5344
V\u8893
sI5345
V\u88ae
sI5346
V\u88e1
sI5347
V\u88e3
sI5348
V\u88e5
sI5349
V\u88f1
sI5350
V\u8941
sI5351
V\u8958
sI5352
V\u895e
sI5353
V\u8966
sI5354
V\u898b
sI5355
V\u89b3
sI5356
V\u89de
sI5357
V\u8a07
sI5358
V\u8a08
sI5359
V\u8a18
sI5360
V\u8a3c
sI5361
V\u8a66
sI5362
V\u8a8c
sI5363
V\u8ab0
sI5364
V\u8acb
sI5365
V\u8ae7
sI5366
V\u8af5
sI5367
V\u8afe
sI5368
V\u8b8a
sI5369
V\u8b93
sI5370
V\u8bb9
sI5371
V\u8bd8
sI5372
V\u8be4
sI5373
V\u8c00
sI5374
V\u8c11
sI5375
V\u8c14
sI5376
V\u8c15
sI5377
V\u8c18
sI5378
V\u8c1d
sI5379
V\u8c2a
sI5380
V\u8c30
sI5381
V\u8c49
sI5382
V\u8c4a
sI5383
V\u8c55
sI5384
V\u8c73
sI5385
V\u8c7a
sI5386
V\u8c85
sI5387
V\u8c94
sI5388
V\u8c9d
sI5389
V\u8d16
sI5390
V\u8d40
sI5391
V\u8d47
sI5392
V\u8d66
sI5393
V\u8d6d
sI5394
V\u8db5
sI5395
V\u8dba
sI5396
V\u8dc4
sI5397
V\u8dce
sI5398
V\u8dd7
sI5399
V\u8df9
sI5400
V\u8dfa
sI5401
V\u8e02
sI5402
V\u8e11
sI5403
V\u8e1f
sI5404
V\u8e2f
sI5405
V\u8e31
sI5406
V\u8e41
sI5407
V\u8e6a
sI5408
V\u8e70
sI5409
V\u8e7c
sI5410
V\u8e85
sI5411
V\u8efd
sI5412
V\u8f15
sI5413
V\u8f6b
sI5414
V\u8f71
sI5415
V\u8f73
sI5416
V\u8f87
sI5417
V\u8f8a
sI5418
V\u8f94
sI5419
V\u8fd7
sI5420
V\u9011
sI5421
V\u9019
sI5422
V\u9021
sI5423
V\u902f
sI5424
V\u9030
sI5425
V\u904a
sI5426
V\u9055
sI5427
V\u908a
sI5428
V\u9095
sI5429
V\u9099
sI5430
V\u90c4
sI5431
V\u90cc
sI5432
V\u90d7
sI5433
V\u90e7
sI5434
V\u90f7
sI5435
V\u9143
sI5436
V\u9150
sI5437
V\u915e
sI5438
V\u915f
sI5439
V\u9179
sI5440
V\u918c
sI5441
V\u9212
sI5442
V\u9279
sI5443
V\u9283
sI5444
V\u92e0
sI5445
V\u936a
sI5446
V\u93ae
sI5447
V\u93c9
sI5448
V\u93ca
sI5449
V\u940c
sI5450
V\u9411
sI5451
V\u9418
sI5452
V\u9485
sI5453
V\u949a
sI5454
V\u94b4
sI5455
V\u94bd
sI5456
V\u94bf
sI5457
V\u94c4
sI5458
V\u94d7
sI5459
V\u94df
sI5460
V\u94e1
sI5461
V\u94e7
sI5462
V\u94e9
sI5463
V\u94ea
sI5464
V\u9511
sI5465
V\u9512
sI5466
V\u9518
sI5467
V\u951f
sI5468
V\u9522
sI5469
V\u9532
sI5470
V\u954f
sI5471
V\u955d
sI5472
V\u955e
sI5473
V\u9561
sI5474
V\u9564
sI5475
V\u956b
sI5476
V\u956d
sI5477
V\u9571
sI5478
V\u9589
sI5479
V\u95fe
sI5480
V\u9608
sI5481
V\u960b
sI5482
V\u960c
sI5483
V\u9615
sI5484
V\u961d
sI5485
V\u9621
sI5486
V\u965b
sI5487
V\u965e
sI5488
V\u9663
sI5489
V\u9670
sI5490
V\u9679
sI5491
V\u9688
sI5492
V\u9697
sI5493
V\u96b9
sI5494
V\u96bc
sI5495
V\u96c9
sI5496
V\u96e2
sI5497
V\u96e3
sI5498
V\u96eb
sI5499
V\u96fb
sI5500
V\u970e
sI5501
V\u9711
sI5502
V\u972d
sI5503
V\u9730
sI5504
V\u975c
sI5505
V\u97ab
sI5506
V\u97b2
sI5507
V\u97b4
sI5508
V\u97e1
sI5509
V\u9822
sI5510
V\u982d
sI5511
V\u9880
sI5512
V\u988d
sI5513
V\u9894
sI5514
V\u98d2
sI5515
V\u98ec
sI5516
V\u990d
sI5517
V\u996b
sI5518
V\u996f
sI5519
V\u9974
sI5520
V\u998d
sI5521
V\u9990
sI5522
V\u9991
sI5523
V\u9993
sI5524
V\u9994
sI5525
V\u9997
sI5526
V\u99ac
sI5527
V\u99cb
sI5528
V\u9a69
sI5529
V\u9a77
sI5530
V\u9a78
sI5531
V\u9a7d
sI5532
V\u9a80
sI5533
V\u9a89
sI5534
V\u9a9d
sI5535
V\u9aa7
sI5536
V\u9ab6
sI5537
V\u9ab7
sI5538
V\u9acb
sI5539
V\u9acc
sI5540
V\u9ad4
sI5541
V\u9aef
sI5542
V\u9af9
sI5543
V\u9b02
sI5544
V\u9b23
sI5545
V\u9b31
sI5546
V\u9b3b
sI5547
V\u9b49
sI5548
V\u9be8
sI5549
V\u9c82
sI5550
V\u9c87
sI5551
V\u9c88
sI5552
V\u9ca7
sI5553
V\u9cab
sI5554
V\u9cae
sI5555
V\u9cb0
sI5556
V\u9cb6
sI5557
V\u9cc0
sI5558
V\u9cc9
sI5559
V\u9cd9
sI5560
V\u9cdc
sI5561
V\u9cdf
sI5562
V\u9ce5
sI5563
V\u9cf3
sI5564
V\u9cfe
sI5565
V\u9d5d
sI5566
V\u9dc1
sI5567
V\u9dc7
sI5568
V\u9e08
sI5569
V\u9e0d
sI5570
V\u9e22
sI5571
V\u9e29
sI5572
V\u9e2a
sI5573
V\u9e2b
sI5574
V\u9e30
sI5575
V\u9e44
sI5576
V\u9e48
sI5577
V\u9e55
sI5578
V\u9e58
sI5579
V\u9e5e
sI5580
V\u9e67
sI5581
V\u9e6a
sI5582
V\u9e6e
sI5583
V\u9eb8
sI5584
V\u9ed2
sI5585
V\u9ede
sI5586
V\u9edf
sI5587
V\u9f10
sI5588
V\u9f37
sI5589
V\u9f85
sI5590
V\u9f89
sI5591
V\u9f8a
sI5592
V\u9f8c
sI5593
V\u9f8d
sI5594
V\u9fa0
s.