(dp1
V\u8000
I1547
sV\u6d89
I1056
sV\u8c08
I689
sV\u4f0a
I859
sV\u4e9f
I2492
sV\u6d1e
I1580
sV\u54a3
I4848
sV\u7f2a
I2849
sV\u6cb3
I632
sV\u4e34
I577
sV\u72b7
I3406
sV\u5438
I791
sV\u5a3c
I4253
sV\u7ebf
I299
sV\u53cd
I401
sV\u724c
I409
sV\u96cf
I3003
sV\u59d1
I1833
sV\u7850
I5176
sV\u5362
I1697
sV\u77e5
I378
sV\u9664
I534
sV\u7de9
I5230
sV\u5f6a
I2840
sV\u95f9
I1497
sV\u5eff
I3972
sV\u8986
I1475
sV\u8f8a
I5417
sV\u5e94
I143
sV\u8e1f
I5403
sV\u5d29
I2020
sV\u82ac
I1762
sV\u51b6
I2317
sV\u9abc
I3724
sV\u6e5f
I3999
sV\u56e4
I2419
sV\u5ce8
I2558
sV\u62ec
I585
sV\u68f0
I5040
sV\u8c73
I5384
sV\u6ef4
I1971
sV\u987b
I697
sV\u5b7d
I3746
sV\u9e7f
I2028
sV\u6c89
I1207
sV\u4e0a
I16
sV\u728d
I4639
sV\u540e
I48
sV\u7891
I1797
sV\u9910
I1091
sV\u6016
I2226
sV\u8499
I1356
sV\u90a1
I2836
sV\u67af
I2714
sV\u4f34
I1125
sV\u73b7
I4642
sV\u9036
I4426
sV\u79bb
I621
sV\u6d48
I5075
sV\u58d1
I4533
sV\u7950
I4665
sV\u7f54
I4169
sV\u76e5
I5165
sV\u88f1
I5349
sV\u53f7
I662
sV\u7076
I2984
sV\u59fb
I1864
sV\u767a
I5162
sV\u5fff
I3975
sV\u8282
I404
sV\u538c
I2390
sV\u8317
I3479
sV\u5021
I1602
sV\u71a0
I3456
sV\u9523
I2440
sV\u7a3d
I2565
sV\u62c2
I3292
sV\u8c49
I5381
sV\u514b
I420
sV\u574f
I1119
sV\u9e55
I5577
sV\u80d6
I2277
sV\u86da
I5329
sV\u51e0
I327
sV\u5de8
I694
sV\u8d73
I4741
sV\u9f7f
I2224
sV\u8200
I5277
sV\u8404
I1294
sV\u6316
I1600
sV\u56a3
I2774
sV\u7b26
I1072
sV\u62ab
I1340
sV\u70b7
I4629
sV\u953a
I4059
sV\u9f3e
I4792
sV\u6240
I95
sV\u6444
I1022
sV\u704c
I2274
sV\u5162
I3190
sV\u5b66
I155
sV\u7fe9
I3543
sV\u81ed
I2516
sV\u8bf1
I1686
sV\u8df5
I1660
sV\u6807
I301
sV\u4e88
I962
sV\u8d8a
I318
sV\u740f
I3674
sV\u9992
I3374
sV\u5c94
I3838
sV\u8017
I1277
sV\u5321
I3334
sV\u72a0
I5120
sV\u5f29
I3973
sV\u7ea8
I5234
sV\u8ab0
I5363
sV\u6d35
I4611
sV\u793d
I5187
sV\u61c2
I1685
sV\u914d
I460
sV\u9b51
I4780
sV\u79d2
I2312
sV\u83d6
I4396
sV\u6c5f
I461
sV\u8fde
I524
sV\u7663
I4654
sV\u60ec
I2841
sV\u76f8
I146
sV\u9a7b
I1405
sV\u597d
I107
sV\u9c7f
I3819
sV\u6485
I4991
sV\u6e89
I3135
sV\u560e
I3121
sV\u7a91
I2622
sV\u7c95
I3361
sV\u6216
I294
sV\u8699
I5321
sV\u57a3
I3084
sV\u94a5
I2487
sV\u7c2a
I5216
sV\u65af
I312
sV\u6fb3
I1134
sV\u8832
I4722
sV\u9e3e
I4787
sV\u4ec9
I4802
sV\u714c
I1882
sV\u7b50
I3359
sV\u66d9
I2415
sV\u4e5e
I3501
sV\u72e1
I3209
sV\u9564
I5474
sV\u7ee9
I767
sV\u80ed
I3786
sV\u666e
I630
sV\u96f9
I3373
sV\u5bfb
I983
sV\u5dff
I4262
sV\u4f88
I2304
sV\u518c
I1437
sV\u7f13
I946
sV\u699c
I1451
sV\u8d1f
I535
sV\u75a4
I3462
sV\u6a31
I2561
sV\u8bb0
I219
sV\u8db4
I3368
sV\u5ebe
I4561
sV\u6ac6
I5054
sV\u6cca
I2155
sV\u904d
I1005
sV\u76ce
I3304
sV\u5f53
I137
sV\u53e0
I2107
sV\u7763
I1160
sV\u90e2
I4431
sV\u55e4
I3958
sV\u9ae6
I3005
sV\u836b
I2398
sV\u8f73
I5415
sV\u9177
I1769
sV\u6989
I5047
sV\u960c
I5482
sV\u7b95
I5206
sV\u631a
I2912
sV\u50a3
I3822
sV\u5ea7
I882
sV\u68b3
I2560
sV\u5e3c
I4111
sV\u7abf
I4024
sV\u80c3
I1885
sV\u6848
I513
sV\u764c
I1605
sV\u98d3
I3156
sV\u8058
I1502
sV\u5762
I4885
sV\u79e9
I1883
sV\u5b6a
I4258
sV\u6f72
I5094
sV\u8bf5
I3108
sV\u5cfb
I1849
sV\u8782
I3796
sV\u8b8a
I5368
sV\u5c90
I2794
sV\u8c1b
I3925
sV\u4f1d
I4077
sV\u6e9c
I2756
sV\u5929
I120
sV\u672d
I3756
sV\u6d31
I3995
sV\u90b8
I3320
sV\u59be
I3964
sV\u4e47
I4797
sV\u6dc6
I3096
sV\u544b
I4493
sV\u71ce
I4009
sV\u6657
I3583
sV\u6c5b
I2291
sV\u89de
I5356
sV\u52e4
I1500
sV\u846b
I2871
sV\u826f
I704
sV\u6cf0
I979
sV\u9677
I1300
sV\u5179
I1794
sV\u7efc
I936
sV\u9a7f
I3422
sV\u8304
I2760
sV\u7c91
I3471
sV\u7a95
I4365
sV\u621a
I2445
sV\u94a1
I4756
sV\u7622
I4355
sV\u65ab
I5002
sV\u5f3c
I4562
sV\u81c3
I3903
sV\u8fc7
I68
sV\u7d50
I5225
sV\u7b54
I1073
sV\u5662
I4244
sV\u9968
I4458
sV\u5a6a
I3245
sV\u86ed
I4714
sV\u8af5
I5366
sV\u7476
I2534
sV\u727a
I2345
sV\u5bff
I1484
sV\u8682
I4182
sV\u8a8a
I4415
sV\u578c
I4526
sV\u9e92
I3278
sV\u8717
I3917
sV\u4e1d
I1290
sV\u6f9c
I2230
sV\u5421
I3734
sV\u5225
I4483
sV\u662d
I2459
sV\u4eb2
I733
sV\u6a35
I3991
sV\u8bb4
I3484
sV\u964d
I522
sV\u534f
I528
sV\u7ed2
I2803
sV\u96e2
I5496
sV\u53e4
I744
sV\u59e8
I2734
sV\u67ec
I3052
sV\u836f
I548
sV\u5e7d
I1859
sV\u7ffc
I1957
sV\u6781
I519
sV\u8004
I4688
sV\u6b89
I4135
sV\u8a08
I5358
sV\u940c
I5449
sV\u4e9b
I123
sV\u611a
I2577
sV\u52a3
I1682
sV\u7f26
I5245
sV\u60af
I4115
sV\u4e30
I783
sV\u8d32
I4422
sV\u5238
I481
sV\u5c3c
I699
sV\u90cf
I4752
sV\u5fd1
I3645
sV\u9ad3
I2522
sV\u8258
I2993
sV\u6ddd
I5082
sV\u71e5
I2481
sV\u5f66
I2225
sV\u636e
I278
sV\u7b7e
I781
sV\u8f86
I1096
sV\u548c
I20
sV\u5e90
I3012
sV\u6298
I1105
sV\u7aa8
I4366
sV\u6f31
I3667
sV\u5bbe
I1122
sV\u954d
I3154
sV\u504f
I1115
sV\u9955
I4457
sV\u6e5b
I2382
sV\u8bde
I1913
sV\u56e0
I118
sV\u866b
I2158
sV\u72f8
I3260
sV\u987f
I1179
sV\u6681
I5017
sV\u8700
I2740
sV\u950c
I2589
sV\u9f10
I5587
sV\u8299
I2539
sV\u4f9b
I272
sV\u8c9d
I5388
sV\u7422
I2757
sV\u67ab
I2209
sV\u4f30
I805
sV\u9636
I752
sV\u6740
I1113
sV\u54cd
I332
sV\u754c
I321
sV\u91cf
I174
sV\u7f50
I2637
sV\u58d5
I4250
sV\u62d9
I3251
sV\u8358
I4390
sV\u9760
I871
sV\u5462
I851
sV\u626e
I1526
sV\u6c72
I3167
sV\u55f7
I4515
sV\u5ffb
I3248
sV\u59ff
I1713
sV\u8482
I1470
sV\u770b
I132
sV\u5f90
I1088
sV\u8517
I3366
sV\u6398
I1678
sV\u77a0
I3881
sV\u5a29
I3570
sV\u642d
I1229
sV\u8fb0
I2268
sV\u7239
I3531
sV\u64c2
I3126
sV\u72ce
I5123
sV\u9e51
I4074
sV\u5b53
I4915
sV\u6557
I5000
sV\u80da
I3474
sV\u57e0
I3161
sV\u94e2
I3717
sV\u51e4
I1462
sV\u5be8
I1871
sV\u65ec
I2796
sV\u4e71
I1211
sV\u9577
I4446
sV\u997f
I2613
sV\u7b8d
I3264
sV\u5d0e
I3043
sV\u9010
I755
sV\u9614
I1589
sV\u7126
I1033
sV\u6eaf
I2670
sV\u8d2e
I3550
sV\u5c38
I2354
sV\u70bb
I4631
sV\u76bf
I3876
sV\u6840
I4311
sV\u6e44
I3664
sV\u82c7
I3546
sV\u6448
I4583
sV\u9ecf
I3006
sV\u51d1
I2099
sV\u57d5
I4892
sV\u4f5a
I4810
sV\u5b62
I4105
sV\u9e64
I2280
sV\u576a
I1980
sV\u8bed
I806
sV\u6d6e
I1523
sV\u50fb
I3503
sV\u56ff
I4247
sV\u5f25
I1778
sV\u7ea4
I1891
sV\u74a8
I3062
sV\u8aac
I4731
sV\u6735
I2041
sV\u9cb8
I3424
sV\u8941
I5350
sV\u6bc2
I3400
sV\u8549
I3699
sV\u665f
I2947
sV\u7267
I2016
sV\u54e8
I2374
sV\u886b
I2233
sV\u97ea
I4773
sV\u60f0
I3844
sV\u66f4
I129
sV\u9a77
I5529
sV\u72fc
I2219
sV\u6881
I1218
sV\u6e85
I3665
sV\u7a8d
I2802
sV\u5212
I363
sV\u6816
I2496
sV\u6e1a
I4615
sV\u829d
I2052
sV\u641e
I1271
sV\u94a9
I2269
sV\u69ab
I4598
sV\u762a
I4152
sV\u77bf
I3408
sV\u8dc3
I1144
sV\u4ec5
I488
sV\u83c7
I3315
sV\u6548
I395
sV\u99cb
I5527
sV\u8d58
I3615
sV\u78e1
I5184
sV\u7ee5
I3362
sV\u566a
I2025
sV\u4fef
I2677
sV\u80f1
I3601
sV\u51fb
I624
sV\u747e
I3461
sV\u4f84
I3820
sV\u6307
I347
sV\u8086
I2387
sV\u868a
I2468
sV\u5b8c
I338
sV\u5821
I1763
sV\u7fa4
I623
sV\u5429
I4842
sV\u6635
I4303
sV\u723d
I2002
sV\u60c6
I3843
sV\u8449
I5303
sV\u594b
I1287
sV\u9051
I4748
sV\u72d2
I4640
sV\u9655
I1706
sV\u675f
I952
sV\u59e0
I4906
sV\u5fe4
I4962
sV\u90e6
I3369
sV\u55e8
I4866
sV\u96ea
I1097
sV\u8f6f
I764
sV\u67f4
I1724
sV\u5c79
I1903
sV\u527d
I3951
sV\u8a00
I564
sV\u6d85
I2563
sV\u6789
I3015
sV\u5112
I2649
sV\u8f99
I2970
sV\u819d
I2254
sV\u6aab
I5053
sV\u752a
I4648
sV\u8132
I4380
sV\u5e38
I212
sV\u503c
I355
sV\u973e
I3555
sV\u9acb
I5538
sV\u784c
I5175
sV\u53d1
I21
sV\u7be1
I4161
sV\u5962
I1879
sV\u5366
I3037
sV\u77e9
I2311
sV\u9668
I3496
sV\u556a
I4506
sV\u6f6e
I1035
sV\u83f1
I2206
sV\u777e
I3879
sV\u8386
I3909
sV\u7a0b
I251
sV\u9192
I1221
sV\u5494
I4083
sV\u4f19
I1225
sV\u6e98
I4618
sV\u821b
I4175
sV\u7aa0
I5195
sV\u9e23
I1969
sV\u7ca4
I2083
sV\u5729
I4248
sV\u692d
I3523
sV\u4fae
I3331
sV\u5bb6
I46
sV\u9eb8
I5583
sV\u4e43
I1646
sV\u63c6
I4981
sV\u8749
I2832
sV\u5c4f
I1670
sV\u7fce
I5253
sV\u9555
I4205
sV\u6857
I5032
sV\u4ed8
I748
sV\u625b
I2795
sV\u8dda
I3928
sV\u95ea
I1743
sV\u9877
I3074
sV\u5f79
I1860
sV\u7ef8
I2465
sV\u517d
I2351
sV\u6c85
I5067
sV\u8708
I4411
sV\u788d
I1495
sV\u5012
I943
sV\u809d
I1499
sV\u9aa1
I4464
sV\u742a
I2294
sV\u6daf
I1977
sV\u8e2e
I4424
sV\u67b3
I5024
sV\u73bb
I1640
sV\u7350
I4013
sV\u7554
I2067
sV\u546a
I4847
sV\u6e6e
I4330
sV\u82f1
I641
sV\u7a76
I504
sV\u53fb
I4841
sV\u90fd
I69
sV\u767e
I482
sV\u8882
I2998
sV\u7b0b
I3064
sV\u5594
I4510
sV\u4e19
I2490
sV\u851f
I5311
sV\u682d
I5030
sV\u4eae
I877
sV\u5cba
I4928
sV\u4f43
I4809
sV\u68c2
I5038
sV\u62c6
I1067
sV\u5b4b
I4913
sV\u7ece
I1928
sV\u4fd8
I3626
sV\u7167
I569
sV\u94ea
I5463
sV\u9977
I3940
sV\u957f
I110
sV\u8c00
I5373
sV\u7591
I814
sV\u6cab
I1353
sV\u732a
I1691
sV\u7eb7
I787
sV\u6c40
I3020
sV\u6a44
I2655
sV\u86c7
I2409
sV\u5fcd
I1789
sV\u55d1
I3957
sV\u5f62
I337
sV\u7be5
I5214
sV\u5566
I2135
sV\u9068
I4196
sV\u8fed
I2854
sV\u6772
I5021
sV\u5ef7
I2014
sV\u7d76
I4681
sV\u52ff
I2732
sV\u6607
I5009
sV\u7c0b
I4679
sV\u5490
I3382
sV\u821f
I1931
sV\u6f2d
I5092
sV\u8eac
I3228
sV\u82b4
I5283
sV\u96bc
I5494
sV\u8d41
I1381
sV\u6fc2
I4626
sV\u65c6
I5005
sV\u5c4b
I644
sV\u9551
I3275
sV\u8bda
I1143
sV\u7667
I5161
sV\u8c6b
I2129
sV\u62f4
I3980
sV\u5979
I432
sV\u76fc
I1919
sV\u6c81
I2715
sV\u6089
I1130
sV\u9510
I1530
sV\u4f97
I3561
sV\u869d
I4713
sV\u9aa5
I3328
sV\u7426
I2920
sV\u6dab
I5080
sV\u722a
I3592
sV\u5938
I1941
sV\u903e
I2242
sV\u6148
I1447
sV\u54d1
I2747
sV\u52d5
I4488
sV\u8958
I5351
sV\u66dd
I2066
sV\u5e62
I2284
sV\u7ae5
I1150
sV\u5466
I3631
sV\u70e9
I4337
sV\u526a
I2169
sV\u7a7a
I283
sV\u707e
I314
sV\u5f8c
I4954
sV\u679c
I215
sV\u5a25
I3435
sV\u5029
I2553
sV\u71a8
I4007
sV\u6e2d
I3300
sV\u85b0
I3418
sV\u83b4
I4395
sV\u8c41
I2691
sV\u6ec2
I4333
sV\u5d4b
I4109
sV\u76d2
I2265
sV\u655b
I2753
sV\u635f
I784
sV\u80de
I1488
sV\u8d6b
I1565
sV\u65f0
I5008
sV\u63f4
I1017
sV\u79f8
I3783
sV\u6f81
I5095
sV\u6389
I1161
sV\u8208
I5279
sV\u7791
I4660
sV\u9610
I2590
sV\u9014
I1090
sV\u631e
I4574
sV\u7d22
I904
sV\u99a5
I3722
sV\u54a7
I3633
sV\u68af
I1286
sV\u543c
I3008
sV\u6844
I4127
sV\u6248
I4118
sV\u5dcd
I2907
sV\u6bd9
I3860
sV\u7fe1
I2869
sV\u5766
I1387
sV\u73e9
I4345
sV\u4eeb
I4806
sV\u6572
I1923
sV\u797a
I3681
sV\u95fd
I2858
sV\u737e
I4344
sV\u818a
I3143
sV\u5c8c
I3388
sV\u8c17
I4736
sV\u7ea0
I1473
sV\u5925
I4902
sV\u72a8
I5121
sV\u6731
I1279
sV\u80b4
I3142
sV\u9ab8
I4215
sV\u94bc
I3620
sV\u8349
I1032
sV\u61ca
I3751
sV\u75d2
I2718
sV\u6c57
I1944
sV\u58e4
I2235
sV\u97e6
I1979
sV\u66f0
I3051
sV\u8273
I1592
sV\u60f4
I4280
sV\u907f
I899
sV\u6885
I1147
sV\u6289
I3125
sV\u7691
I4357
sV\u5412
I4492
sV\u7095
I5101
sV\u5ba3
I729
sV\u55a7
I2631
sV\u7626
I2221
sV\u63b3
I4578
sV\u77bb
I2328
sV\u4ec1
I1567
sV\u8bc3
I4732
sV\u7750
I1911
sV\u4e56
I2902
sV\u7ee1
I5236
sV\u72e9
I3673
sV\u5df7
I2079
sV\u9af9
I5542
sV\u51ff
I3333
sV\u8c82
I3614
sV\u9492
I2931
sV\u659c
I1887
sV\u9b23
I5544
sV\u5229
I111
sV\u6631
I3853
sV\u6035
I4964
sV\u5eb6
I3971
sV\u7a39
I4364
sV\u52be
I4228
sV\u8e41
I5406
sV\u8845
I4186
sV\u60ca
I1029
sV\u594f
I1529
sV\u5353
I1749
sV\u74d2
I3775
sV\u9055
I5426
sV\u82de
I3906
sV\u5fe0
I1409
sV\u53e8
I3380
sV\u8f6b
I5413
sV\u6dec
I5083
sV\u547d
I705
sV\u75fc
I4150
sV\u917f
I2060
sV\u9000
I842
sV\u7785
I3880
sV\u9604
I4766
sV\u5f0a
I2071
sV\u820c
I2408
sV\u7116
I4339
sV\u5e9f
I1463
sV\u70ab
I2357
sV\u6f2a
I3768
sV\u952e
I934
sV\u5830
I1486
sV\u7cb3
I4368
sV\u8d3e
I1688
sV\u94c3
I2106
sV\u6850
I2546
sV\u6e54
I4617
sV\u5156
I3243
sV\u575a
I796
sV\u7bdd
I4160
sV\u67e5
I500
sV\u8bfd
I4189
sV\u4eff
I1539
sV\u7403
I163
sV\u9986
I844
sV\u9f8a
I5591
sV\u660f
I2344
sV\u6c13
I3401
sV\u4e94
I462
sV\u7498
I5137
sV\u7a9c
I3306
sV\u9e1f
I1624
sV\u60a0
I1791
sV\u6539
I309
sV\u84b8
I2361
sV\u5443
I4844
sV\u73c2
I2883
sV\u79c6
I3683
sV\u7fca
I4170
sV\u65ce
I3656
sV\u6bd2
I1124
sV\u5adc
I4911
sV\u89e6
I1183
sV\u8fea
I1060
sV\u72ec
I659
sV\u7ef4
I553
sV\u8e7f
I3706
sV\u9704
I2592
sV\u5806
I1852
sV\u7c89
I1456
sV\u8910
I3183
sV\u9499
I3032
sV\u9a9d
I5534
sV\u80a1
I128
sV\u6222
I4974
sV\u63b7
I3049
sV\u8036
I2031
sV\u69bb
I3017
sV\u4ed5
I2207
sV\u5c5e
I651
sV\u5df3
I4558
sV\u6076
I1263
sV\u667a
I984
sV\u6c7e
I3132
sV\u5180
I2694
sV\u5784
I1814
sV\u9886
I427
sV\u6da8
I465
sV\u5ab2
I2878
sV\u6a3d
I4599
sV\u8bbc
I1946
sV\u9041
I4747
sV\u5543
I3567
sV\u72c2
I1343
sV\u9645
I261
sV\u7eca
I2891
sV\u64ce
I2116
sV\u7357
I3770
sV\u795b
I3468
sV\u7f5f
I5248
sV\u9cde
I3277
sV\u6563
I1076
sV\u6b67
I1984
sV\u79f0
I492
sV\u8377
I1019
sV\u8f7f
I1525
sV\u9e08
I5568
sV\u800c
I64
sV\u6d95
I3764
sV\u8c14
I5375
sV\u7316
I3593
sV\u5a9b
I2308
sV\u751a
I715
sV\u8fa9
I2085
sV\u6d2a
I1341
sV\u502c
I4824
sV\u7eb3
I707
sV\u5c34
I1981
sV\u8336
I1422
sV\u853a
I4400
sV\u6cbf
I1101
sV\u53c1
I4840
sV\u55c5
I2773
sV\u7444
I3533
sV\u5fc9
I4565
sV\u82cb
I5285
sV\u5356
I575
sV\u63e1
I1106
sV\u65e5
I185
sV\u6376
I3982
sV\u87f9
I2834
sV\u5484
I3282
sV\u5e88
I4945
sV\u640f
I2179
sV\u9017
I2835
sV\u62a0
I3846
sV\u64a4
I1585
sV\u90ac
I3933
sV\u57ae
I2248
sV\u9ab0
I4072
sV\u59b2
I3963
sV\u693d
I3759
sV\u7bc6
I3894
sV\u4e53
I2316
sV\u93d6
I3618
sV\u6867
I4313
sV\u8be6
I1009
sV\u4ee8
I4076
sV\u8dea
I3029
sV\u516d
I703
sV\u70ec
I5102
sV\u5b71
I4547
sV\u9e73
I4219
sV\u7281
I3672
sV\u9504
I4761
sV\u5a06
I3833
sV\u5c0a
I1331
sV\u608d
I2393
sV\u6c95
I4606
sV\u5197
I4225
sV\u9699
I2569
sV\u5b9b
I2353
sV\u741a
I5133
sV\u989d
I688
sV\u82a1
I4385
sV\u73ab
I2196
sV\u75af
I1645
sV\u962e
I2628
sV\u61b7
I4973
sV\u8236
I2640
sV\u6dbf
I5081
sV\u5ec9
I1416
sV\u614c
I1866
sV\u85cf
I993
sV\u6d54
I3762
sV\u5256
I2650
sV\u8360
I5293
sV\u8564
I5313
sV\u6ee9
I1766
sV\u8f68
I1309
sV\u53eb
I966
sV\u90ed
I1274
sV\u55ef
I4867
sV\u6276
I1596
sV\u86f9
I4410
sV\u647a
I4989
sV\u6e7e
I840
sV\u9082
I3492
sV\u5584
I635
sV\u9a86
I2900
sV\u5f88
I106
sV\u6f13
I2498
sV\u8892
I4038
sV\u63a0
I2977
sV\u65a4
I2682
sV\u683d
I2950
sV\u70c2
I1874
sV\u5947
I731
sV\u9e49
I4468
sV\u7cca
I1947
sV\u804d
I5258
sV\u4f53
I96
sV\u68d2
I1511
sV\u8c55
I5383
sV\u7b5b
I2689
sV\u59dc
I1942
sV\u9ede
I5585
sV\u4fe8
I3076
sV\u956f
I4060
sV\u5d06
I4933
sV\u8c10
I1404
sV\u5c9b
I915
sV\u4ea7
I30
sV\u72af
I1308
sV\u78b3
I2142
sV\u5a34
I2792
sV\u6cbb
I615
sV\u664c
I5015
sV\u82cf
I908
sV\u6c50
I3528
sV\u5556
I4856
sV\u535a
I687
sV\u9e5c
I3499
sV\u8868
I122
sV\u97ed
I4208
sV\u716e
I2464
sV\u58f3
I1974
sV\u7f72
I1209
sV\u637a
I3983
sV\u8ffd
I872
sV\u5480
I3505
sV\u620f
I834
sV\u6813
I3128
sV\u7098
I4003
sV\u62a4
I598
sV\u68a8
I2527
sV\u772d
I5169
sV\u9cb0
I5555
sV\u9541
I2872
sV\u5043
I3821
sV\u6fd2
I2882
sV\u946b
I2018
sV\u576d
I4886
sV\u5b75
I3641
sV\u9500
I296
sV\u5c06
I65
sV\u7889
I4020
sV\u9099
I5429
sV\u721a
I5112
sV\u9e9d
I3624
sV\u82a5
I4386
sV\u4fa7
I1116
sV\u75ab
I1400
sV\u6a2a
I1435
sV\u73af
I275
sV\u902e
I3491
sV\u5b34
I4912
sV\u67b7
I5025
sV\u4f3c
I754
sV\u6bbf
I2043
sV\u54c1
I83
sV\u7948
I2346
sV\u83cf
I4702
sV\u6d50
I3207
sV\u5456
I4846
sV\u70d9
I3453
sV\u7edd
I724
sV\u585e
I1080
sV\u62e5
I798
sV\u8364
I3908
sV\u53ef
I44
sV\u8efd
I5411
sV\u5580
I2392
sV\u5384
I2746
sV\u7f07
I5241
sV\u5988
I1231
sV\u9a8a
I3423
sV\u5019
I501
sV\u5e1d
I1703
sV\u9b1f
I4466
sV\u69a8
I3297
sV\u5143
I531
sV\u76c2
I4655
sV\u94d6
I4438
sV\u98de
I686
sV\u956b
I5475
sV\u5c71
I360
sV\u5a75
I3965
sV\u9600
I3324
sV\u9004
I4745
sV\u840c
I2449
sV\u6995
I2980
sV\u711a
I3059
sV\u589f
I2026
sV\u7b1e
I5198
sV\u81a5
I5271
sV\u8ba9
I240
sV\u542c
I826
sV\u70af
I3405
sV\u5e30
I4943
sV\u5834
I4531
sV\u64b7
I4298
sV\u7640
I5159
sV\u86cb
I1520
sV\u4fd1
I2972
sV\u6854
I3858
sV\u73d9
I5129
sV\u515a
I1149
sV\u56eb
I4880
sV\u95ed
I1305
sV\u83f9
I5299
sV\u4efb
I242
sV\u7c07
I3066
sV\u838e
I1574
sV\u5319
I2402
sV\u8c27
I3271
sV\u752d
I4015
sV\u53ae
I3280
sV\u6339
I4979
sV\u82b8
I2994
sV\u6d3d
I2081
sV\u5243
I3628
sV\u75c2
I5150
sV\u9b49
I5547
sV\u52d8
I2134
sV\u6263
I1398
sV\u8fe6
I3804
sV\u5f71
I211
sV\u7ef0
I3067
sV\u9a73
I2521
sV\u6cfc
I2528
sV\u9700
I232
sV\u7085
I3867
sV\u5e06
I1894
sV\u701a
I3208
sV\u7a1e
I4668
sV\u80a5
I1432
sV\u682a
I2617
sV\u552c
I3637
sV\u5934
I402
sV\u8a3e
I4729
sV\u7740
I171
sV\u9dc7
I5567
sV\u5ac9
I3571
sV\u654c
I1617
sV\u4ed1
I2161
sV\u6954
I4131
sV\u72d9
I3172
sV\u505a
I206
sV\u8760
I3795
sV\u4e66
I609
sV\u94ed
I1812
sV\u51ef
I970
sV\u6676
I1420
sV\u82f9
I1847
sV\u607a
I3647
sV\u6a7e
I5052
sV\u5b88
I913
sV\u670b
I923
sV\u988a
I3187
sV\u610f
I169
sV\u5219
I417
sV\u7398
I3532
sV\u5c1d
I1477
sV\u61a4
I4972
sV\u8d27
I566
sV\u5343
I700
sV\u5d47
I4556
sV\u7ec6
I618
sV\u78ca
I2105
sV\u62ce
I3164
sV\u53d8
I281
sV\u795f
I4667
sV\u6363
I3338
sV\u916f
I3230
sV\u7ff0
I2084
sV\u5875
I4897
sV\u63f8
I4985
sV\u8f7b
I655
sV\u6dfc
I3765
sV\u897f
I197
sV\u7981
I1066
sV\u8010
I1548
sV\u6795
I2948
sV\u7f1a
I2739
sV\u569f
I4522
sV\u6b22
I741
sV\u672a
I342
sV\u7eaf
I1196
sV\u5634
I1689
sV\u8936
I3611
sV\u60bb
I3842
sV\u7840
I809
sV\u5fc5
I447
sV\u6050
I1189
sV\u84d3
I3181
sV\u6654
I4122
sV\u5956
I777
sV\u65e9
I657
sV\u58eb
I411
sV\u7d6e
I3414
sV\u97f5
I2244
sV\u8df9
I5399
sV\u6f7a
I3865
sV\u83fd
I5300
sV\u5880
I4532
sV\u5e84
I1011
sV\u680b
I1464
sV\u6413
I3519
sV\u7c98
I2330
sV\u901b
I2314
sV\u531d
I3824
sV\u961f
I150
sV\u8c23
I2303
sV\u7b2d
I5201
sV\u7131
I3350
sV\u90b0
I4198
sV\u6d39
I5074
sV\u633d
I2149
sV\u9549
I4444
sV\u4e4f
I1139
sV\u8151
I3789
sV\u63d2
I1835
sV\u7a57
I2688
sV\u8be2
I999
sV\u4ee4
I743
sV\u6267
I773
sV\u5171
I526
sV\u76f4
I311
sV\u6cf8
I3055
sV\u62fc
I1455
sV\u7881
I3467
sV\u9508
I2588
sV\u8110
I3690
sV\u5b97
I1190
sV\u7816
I1693
sV\u519b
I448
sV\u6026
I4275
sV\u7faf
I5251
sV\u5734
I4884
sV\u6bb7
I2497
sV\u58c1
I1453
sV\u7940
I3025
sV\u7f44
I3141
sV\u54c9
I3383
sV\u7548
I5146
sV\u6b4c
I631
sV\u85d3
I4711
sV\u7cd9
I2991
sV\u72dd
I5124
sV\u6ee5
I2104
sV\u8568
I4401
sV\u55f3
I4868
sV\u7272
I2286
sV\u6876
I2369
sV\u9a82
I2215
sV\u5f84
I1323
sV\u690b
I4594
sV\u968a
I4769
sV\u6f0f
I1746
sV\u8292
I2503
sV\u521d
I757
sV\u8d23
I390
sV\u4e25
I580
sV\u8327
I3480
sV\u52b2
I1235
sV\u97b4
I5507
sV\u8db8
I3551
sV\u4eba
I11
sV\u9e45
I2473
sV\u5347
I385
sV\u76ca
I431
sV\u4f4f
I192
sV\u62d2
I1467
sV\u6d63
I3863
sV\u6367
I1792
sV\u996b
I5517
sV\u9573
I4764
sV\u817b
I2212
sV\u5306
I2306
sV\u9608
I5480
sV\u4f0e
I3502
sV\u9f99
I608
sV\u529b
I70
sV\u8ba1
I188
sV\u5230
I36
sV\u5434
I1109
sV\u4e38
I2452
sV\u8d3a
I1904
sV\u5dc5
I2559
sV\u8acb
I5364
sV\u684c
I1916
sV\u6454
I2413
sV\u9e58
I5578
sV\u575e
I2120
sV\u6be1
I3861
sV\u7f6e
I414
sV\u7172
I3455
sV\u95f5
I2729
sV\u8ff9
I1172
sV\u677e
I855
sV\u6c0f
I1855
sV\u6613
I358
sV\u709c
I2601
sV\u6ca4
I5069
sV\u66a8
I2368
sV\u5fae
I808
sV\u51b2
I841
sV\u7535
I148
sV\u94b4
I5454
sV\u80bc
I5264
sV\u9b41
I2934
sV\u5047
I833
sV\u75ca
I3778
sV\u61d2
I2457
sV\u725b
I1038
sV\u745f
I2687
sV\u78ec
I4663
sV\u5371
I786
sV\u72f0
I4011
sV\u5575
I4858
sV\u74f4
I5142
sV\u8877
I1842
sV\u7a81
I670
sV\u5802
I1236
sV\u5206
I76
sV\u9708
I4207
sV\u540a
I1989
sV\u4e0e
I82
sV\u6291
I1339
sV\u6495
I2653
sV\u909d
I4429
sV\u559f
I4860
sV\u4fa3
I2430
sV\u6226
I3753
sV\u86a9
I5325
sV\u7bab
I3893
sV\u642a
I3850
sV\u77b3
I3358
sV\u69b7
I3586
sV\u4f38
I1634
sV\u5ac1
I1927
sV\u91c7
I430
sV\u8bcb
I4040
sV\u6350
I1025
sV\u7ed9
I182
sV\u6ce5
I1403
sV\u8d64
I1819
sV\u94f5
I3552
sV\u6c7a
I5066
sV\u80fd
I33
sV\u667e
I3855
sV\u7f03
I5240
sV\u9882
I2570
sV\u948a
I3619
sV\u951f
I5467
sV\u6da4
I3022
sV\u99ac
I5526
sV\u7231
I444
sV\u50b2
I1848
sV\u7435
I4348
sV\u884d
I2058
sV\u5fd8
I1395
sV\u6167
I1418
sV\u82e6
I1040
sV\u9773
I3276
sV\u5475
I2298
sV\u75f4
I2384
sV\u5f02
I894
sV\u5506
I4853
sV\u6f8d
I4335
sV\u8e0c
I4191
sV\u6591
I1982
sV\u8214
I3904
sV\u5e97
I533
sV\u9999
I614
sV\u549b
I4237
sV\u529f
I477
sV\u8ba5
I3922
sV\u632a
I2343
sV\u992e
I4212
sV\u70b3
I2738
sV\u9732
I666
sV\u62bf
I3979
sV\u813e
I2605
sV\u5bc5
I3197
sV\u96c7
I2530
sV\u51c9
I1712
sV\u6254
I2712
sV\u5b5a
I3123
sV\u6de1
I1249
sV\u95f1
I4765
sV\u4ef7
I59
sV\u7607
I5155
sV\u4e8c
I238
sV\u5919
I4534
sV\u7898
I4154
sV\u60a8
I810
sV\u7f2d
I3026
sV\u59ae
I2012
sV\u7531
I191
sV\u94b0
I3153
sV\u57b2
I4890
sV\u6939
I5044
sV\u673d
I3295
sV\u9b45
I1755
sV\u9149
I4052
sV\u73ca
I2262
sV\u67d2
I4589
sV\u745b
I2884
sV\u725f
I2702
sV\u6863
I900
sV\u8fe2
I4744
sV\u5f6d
I1767
sV\u9a6f
I3556
sV\u5375
I2508
sV\u66fc
I1260
sV\u5e02
I18
sV\u5406
I3429
sV\u7089
I1917
sV\u520a
I1490
sV\u6491
I1298
sV\u6295
I126
sV\u5f97
I75
sV\u7a1a
I2724
sV\u539f
I263
sV\u6426
I4987
sV\u80a9
I1809
sV\u622a
I1541
sV\u5530
I4503
sV\u9632
I523
sV\u8c36
I4421
sV\u5cc1
I4929
sV\u8dcb
I3486
sV\u4ecd
I529
sV\u8bcf
I4041
sV\u5a5a
I925
sV\u975c
I5504
sV\u6ce1
I1203
sV\u8d60
I1386
sV\u60e9
I2271
sV\u5deb
I2634
sV\u786e
I380
sV\u51f3
I2678
sV\u6c76
I1334
sV\u88f9
I2784
sV\u5188
I2595
sV\u6d0b
I969
sV\u61a8
I3289
sV\u7235
I2293
sV\u6839
I479
sV\u5747
I654
sV\u8451
I5304
sV\u7f57
I511
sV\u6963
I4315
sV\u84e6
I5310
sV\u5471
I3281
sV\u75f0
I3353
sV\u7f81
I3542
sV\u5d02
I3512
sV\u7985
I2781
sV\u5706
I1427
sV\u7389
I1081
sV\u8c0c
I4420
sV\u5c97
I1599
sV\u7f16
I761
sV\u6726
I3294
sV\u7eab
I3785
sV\u5c2c
I1975
sV\u9532
I5469
sV\u66bb
I5018
sV\u53c9
I2074
sV\u7248
I930
sV\u82d3
I4699
sV\u7bd9
I5212
sV\u595a
I3286
sV\u535e
I3080
sV\u6fe1
I4143
sV\u63e9
I4293
sV\u7407
I4346
sV\u5288
I3377
sV\u680f
I1725
sV\u7a98
I3177
sV\u749c
I4147
sV\u901f
I383
sV\u8427
I1997
sV\u62a8
I3291
sV\u5bae
I4549
sV\u4e4b
I91
sV\u71ca
I5109
sV\u6bce
I5059
sV\u65d2
I5006
sV\u8155
I2423
sV\u5ad8
I4910
sV\u6467
I2578
sV\u81ea
I77
sV\u7cec
I5219
sV\u76f0
I5166
sV\u5175
I1013
sV\u867b
I5319
sV\u807f
I4691
sV\u6691
I1907
sV\u579b
I4888
sV\u781a
I3882
sV\u949d
I3232
sV\u6c22
I2826
sV\u82a9
I4698
sV\u602a
I1521
sV\u5730
I13
sV\u52c9
I2554
sV\u6d4c
I5076
sV\u6750
I677
sV\u7ad9
I546
sV\u74dd
I5141
sV\u955c
I1373
sV\u6ee1
I551
sV\u62e9
I568
sV\u8368
I4392
sV\u5feb
I396
sV\u53f3
I1092
sV\u627e
I507
sV\u5f80
I505
sV\u7b03
I3890
sV\u9c82
I5549
sV\u5984
I2838
sV\u9686
I1335
sV\u908a
I5427
sV\u541d
I3120
sV\u63a8
I353
sV\u8bb8
I493
sV\u643d
I4582
sV\u76c6
I2137
sV\u8651
I671
sV\u64d2
I3652
sV\u775b
I1726
sV\u98da
I3118
sV\u55dc
I3191
sV\u6b63
I180
sV\u996f
I5518
sV\u5671
I3081
sV\u8d77
I187
sV\u817f
I1551
sV\u8483
I5306
sV\u6302
I1159
sV\u908b
I4428
sV\u538d
I4229
sV\u968f
I456
sV\u5f95
I4955
sV\u6297
I742
sV\u6e9f
I4619
sV\u9020
I277
sV\u6e34
I1880
sV\u7a3c
I3889
sV\u73cd
I1489
sV\u524c
I4834
sV\u79d1
I330
sV\u5e54
I4266
sV\u82d7
I1679
sV\u51e1
I1426
sV\u94e3
I4439
sV\u5de9
I2148
sV\u60eb
I2750
sV\u7f6a
I1534
sV\u8870
I1781
sV\u6cf3
I1656
sV\u8e74
I3273
sV\u5176
I102
sV\u9a7c
I3241
sV\u7eff
I738
sV\u6684
I3856
sV\u6c88
I1324
sV\u500b
I4821
sV\u5c13
I4550
sV\u7121
I4340
sV\u9e3f
I1674
sV\u80c0
I802
sV\u6a47
I4133
sV\u4fca
I1444
sV\u55ce
I4862
sV\u5bd2
I1770
sV\u9ed4
I2936
sV\u8559
I3417
sV\u64d8
I4997
sV\u4e5f
I39
sV\u9765
I4452
sV\u5a67
I2819
sV\u636d
I4576
sV\u7579
I5148
sV\u918b
I2765
sV\u6e0a
I2407
sV\u740e
I4645
sV\u5e95
I628
sV\u699b
I4596
sV\u82ad
I2606
sV\u88b1
I2726
sV\u6930
I2979
sV\u7538
I2110
sV\u59bb
I1406
sV\u7b3c
I2036
sV\u6cc9
I1237
sV\u8e4a
I3617
sV\u72cd
I5122
sV\u7ed5
I1452
sV\u665a
I898
sV\u8fdf
I1384
sV\u6c5e
I3761
sV\u7262
I1823
sV\u67ef
I1935
sV\u6df3
I2700
sV\u8f74
I1838
sV\u5076
I1549
sV\u79fb
I774
sV\u567a
I4876
sV\u8001
I369
sV\u8605
I4712
sV\u6784
I372
sV\u6d88
I266
sV\u510b
I4480
sV\u7f94
I3899
sV\u8096
I1780
sV\u51a0
I838
sV\u98a6
I4456
sV\u64ae
I4121
sV\u5439
I1728
sV\u7cbe
I471
sV\u81c0
I2992
sV\u6b47
I2370
sV\u4eca
I282
sV\u54ce
I3953
sV\u5ad2
I4543
sV\u4f5f
I2742
sV\u626d
I1779
sV\u5bfc
I328
sV\u9cfe
I5564
sV\u518d
I322
sV\u9e93
I2814
sV\u6c9f
I1208
sV\u4f1e
I2441
sV\u78a7
I1727
sV\u81ad
I5272
sV\u8db5
I5394
sV\u6c34
I195
sV\u7638
I5158
sV\u783c
I4362
sV\u5cbf
I4553
sV\u65c5
I480
sV\u6fc9
I5098
sV\u4e48
I209
sV\u8d4a
I4740
sV\u71cd
I5110
sV\u504c
I3727
sV\u7bd1
I3895
sV\u6f5e
I3347
sV\u96e3
I5497
sV\u98e7
I4775
sV\u70f7
I4338
sV\u8301
I3693
sV\u6280
I351
sV\u540f
I4081
sV\u8f9e
I1611
sV\u52a0
I109
sV\u7525
I4647
sV\u54a4
I3565
sV\u7f29
I922
sV\u822b
I4176
sV\u6643
I2414
sV\u84c4
I1561
sV\u90cc
I5431
sV\u57ce
I159
sV\u59d2
I4905
sV\u8759
I3794
sV\u72e0
I2287
sV\u7779
I2395
sV\u95fa
I3622
sV\u8783
I3482
sV\u6002
I4274
sV\u4e89
I451
sV\u508d
I2648
sV\u8718
I3701
sV\u6d9f
I3529
sV\u4e1e
I3625
sV\u9524
I3033
sV\u79a7
I2961
sV\u51b7
I1070
sV\u96b9
I5493
sV\u7738
I3463
sV\u793c
I1058
sV\u8042
I2386
sV\u64c5
I1876
sV\u8c4a
I5382
sV\u7ad1
I4670
sV\u5b50
I157
sV\u7cd5
I2003
sV\u8bdb
I3924
sV\u8ddf
I676
sV\u54e5
I1267
sV\u8d74
I1314
sV\u997c
I2339
sV\u6380
I2001
sV\u6f88
I3098
sV\u900d
I3000
sV\u550f
I3566
sV\u5f13
I2942
sV\u6619
I3166
sV\u90a2
I2808
sV\u7425
I3870
sV\u5fa8
I3643
sV\u832b
I2222
sV\u66ae
I3127
sV\u72b6
I499
sV\u5639
I4091
sV\u9b3b
I5546
sV\u7ebe
I4165
sV\u6743
I308
sV\u8fc8
I1552
sV\u91cc
I194
sV\u754f
I2436
sV\u67d8
I3857
sV\u73e0
I1138
sV\u75e4
I5152
sV\u606d
I2821
sV\u86ee
I2469
sV\u6a71
I2918
sV\u57f8
I4893
sV\u94fa
I1197
sV\u8083
I1733
sV\u8e87
I4193
sV\u9893
I2859
sV\u5b95
I3288
sV\u6697
I1375
sV\u8018
I3689
sV\u6c9b
I2461
sV\u7ea7
I398
sV\u662c
I5011
sV\u56b7
I3741
sV\u65c1
I1428
sV\u564c
I3830
sV\u7dd1
I5229
sV\u5c50
I4922
sV\u6556
I3340
sV\u4fdd
I133
sV\u695e
I4132
sV\u55e1
I4090
sV\u7762
I4657
sV\u53e5
I1111
sV\u866c
I5317
sV\u62ef
I2681
sV\u5576
I4508
sV\u7cfb
I239
sV\u7aff
I3102
sV\u8305
I2397
sV\u6284
I2080
sV\u4e07
I450
sV\u970d
I1719
sV\u4e9c
I4800
sV\u7325
I5126
sV\u7929
I5186
sV\u58a8
I1757
sV\u73ba
I3099
sV\u79be
I2800
sV\u6043
I3750
sV\u96cc
I3235
sV\u5fd2
I4959
sV\u9ad4
I5540
sV\u60d8
I4969
sV\u9561
I5473
sV\u78e8
I1588
sV\u676d
I1178
sV\u6602
I1741
sV\u8f87
I5416
sV\u958b
I4447
sV\u6a0a
I2636
sV\u938f
I4755
sV\u5c91
I3042
sV\u9993
I5523
sV\u6797
I518
sV\u8118
I5267
sV\u6d9b
I1538
sV\u672c
I71
sV\u90b9
I2234
sV\u9ebd
I3559
sV\u5bbf
I1672
sV\u62c5
I590
sV\u8c46
I1593
sV\u68c9
I1983
sV\u5b54
I1702
sV\u4edd
I4803
sV\u8bdf
I3184
sV\u54e1
I4852
sV\u65eb
I5007
sV\u63ef
I4984
sV\u8d70
I412
sV\u9178
I1480
sV\u587e
I4099
sV\u8401
I5301
sV\u8205
I3312
sV\u6988
I2698
sV\u778c
I4659
sV\u7b94
I4026
sV\u6e1d
I2156
sV\u59a8
I2034
sV\u852b
I4707
sV\u5e3d
I2013
sV\u78be
I3885
sV\u6f47
I2581
sV\u89c8
I1394
sV\u5f67
I4953
sV\u94f6
I267
sV\u51f8
I1863
sV\u6f06
I2189
sV\u968b
I3554
sV\u730e
I2421
sV\u8c1c
I2608
sV\u5522
I4240
sV\u5f26
I2512
sV\u592a
I473
sV\u642c
I1481
sV\u8fb1
I2426
sV\u7238
I1577
sV\u67c1
I5026
sV\u75cd
I3872
sV\u5854
I965
sV\u6756
I3444
sV\u846c
I2425
sV\u60ef
I1248
sV\u8e70
I5408
sV\u74f7
I2220
sV\u9c7c
I1321
sV\u6084
I1895
sV\u500f
I4476
sV\u5a13
I4102
sV\u63ae
I4292
sV\u6db2
I1275
sV\u5339
I1421
sV\u5d3d
I4555
sV\u86c0
I3700
sV\u80c4
I4172
sV\u6c47
I763
sV\u764b
I5160
sV\u704f
I3404
sV\u62d8
I2667
sV\u8d5d
I3801
sV\u9761
I2506
sV\u5263
I4836
sV\u9165
I3031
sV\u70e4
I2310
sV\u4ef0
I2152
sV\u6975
I5045
sV\u97f6
I2400
sV\u52f8
I4838
sV\u6402
I3396
sV\u978b
I1476
sV\u5e91
I4947
sV\u6597
I1163
sV\u5e26
I313
sV\u582a
I1683
sV\u6934
I4595
sV\u55b7
I1844
sV\u60c5
I149
sV\u7ed1
I2331
sV\u78d5
I2925
sV\u5954
I1423
sV\u6656
I2136
sV\u8fdb
I63
sV\u56e1
I4093
sV\u5ae9
I2340
sV\u8f70
I1999
sV\u6bf3
I5061
sV\u5676
I4520
sV\u7ffb
I1352
sV\u8005
I62
sV\u809a
I2301
sV\u8a9e
I4730
sV\u57a0
I3961
sV\u94a2
I722
sV\u51a4
I2507
sV\u9ea6
I1322
sV\u5ba8
I4917
sV\u812f
I4173
sV\u9537
I4443
sV\u5239
I2200
sV\u9f3b
I2115
sV\u70ba
I4630
sV\u5c3d
I545
sV\u6d47
I2619
sV\u4ec6
I3158
sV\u8bc8
I2145
sV\u5cd2
I4931
sV\u4f5b
I1364
sV\u9661
I2767
sV\u9065
I1614
sV\u9a69
I5528
sV\u96f6
I932
sV\u7279
I181
sV\u53f8
I66
sV\u7c7d
I3360
sV\u9493
I2552
sV\u8c18
I5377
sV\u4f1a
I22
sV\u821c
I2870
sV\u572a
I4249
sV\u8bad
I778
sV\u6634
I5013
sV\u7c38
I3308
sV\u50bb
I2216
sV\u8146
I3787
sV\u80db
I5265
sV\u86df
I4183
sV\u655e
I2023
sV\u7166
I4006
sV\u5976
I1316
sV\u557e
I4859
sV\u5e0f
I4941
sV\u5413
I2247
sV\u6d19
I3862
sV\u631d
I3517
sV\u7921
I5185
sV\u7f25
I4168
sV\u7529
I2548
sV\u54a8
I1276
sV\u8e2f
I5404
sV\u6dae
I3663
sV\u903b
I2086
sV\u963f
I717
sV\u75be
I1289
sV\u6247
I2513
sV\u9acc
I5539
sV\u62dc
I1564
sV\u5267
I619
sV\u83f2
I1299
sV\u6775
I5022
sV\u95fe
I5479
sV\u6a02
I4317
sV\u6006
I4113
sV\u998b
I4460
sV\u660a
I2272
sV\u4e1a
I14
sV\u831c
I2504
sV\u5026
I2594
sV\u4faf
I2006
sV\u80b1
I5263
sV\u86b5
I5327
sV\u6734
I1898
sV\u51bb
I1965
sV\u6ec5
I5088
sV\u8046
I2850
sV\u8bd7
I1402
sV\u645e
I4120
sV\u54e9
I3735
sV\u8b6c
I3270
sV\u6fef
I5099
sV\u8170
I1550
sV\u8774
I2833
sV\u7bf7
I1836
sV\u5e7a
I4944
sV\u77ff
I1014
sV\u6980
I5046
sV\u6f84
I2394
sV\u5f0f
I202
sV\u9011
I5420
sV\u9615
I5483
sV\u8896
I2112
sV\u6c19
I4136
sV\u9aa2
I4778
sV\u90a6
I1535
sV\u6cae
I3206
sV\u5c39
I2299
sV\u7eba
I1732
sV\u8fc4
I2417
sV\u52d2
I1193
sV\u6dd8
I1399
sV\u5367
I1540
sV\u53fc
I4490
sV\u94fe
I1201
sV\u8087
I2851
sV\u9a8b
I3004
sV\u598d
I2976
sV\u7f0e
I3898
sV\u6897
I3296
sV\u629b
I1434
sV\u7ea3
I4683
sV\u5922
I4901
sV\u5326
I4839
sV\u83b1
I1182
sV\u54bf
I4849
sV\u6bc1
I1639
sV\u6dc5
I4613
sV\u8346
I2223
sV\u854a
I2032
sV\u79cd
I162
sV\u584c
I1625
sV\u73d1
I2988
sV\u5250
I4485
sV\u9152
I639
sV\u75d5
I2264
sV\u82db
I2641
sV\u6d5a
I3402
sV\u84df
I2967
sV\u675e
I3585
sV\u5be1
I2776
sV\u7962
I5191
sV\u5de5
I94
sV\u90e7
I5433
sV\u756a
I1412
sV\u886c
I2182
sV\u6cef
I5072
sV\u8270
I1469
sV\u66f3
I3584
sV\u78f7
I2437
sV\u72fb
I5125
sV\u6a80
I3095
sV\u4e03
I854
sV\u8709
I5332
sV\u990d
I5516
sV\u788c
I2501
sV\u5c0f
I92
sV\u4e98
I3726
sV\u7729
I3357
sV\u8c2f
I4738
sV\u5f39
I878
sV\u6e43
I3766
sV\u6ed8
I4621
sV\u60dc
I1603
sV\u7ae0
I1057
sV\u9769
I780
sV\u6371
I4289
sV\u7f79
I3415
sV\u717d
I3351
sV\u8f83
I231
sV\u5495
I3564
sV\u659f
I3655
sV\u88ad
I1961
sV\u82b1
I469
sV\u7f38
I2515
sV\u53bb
I222
sV\u4ed9
I1831
sV\u665e
I4306
sV\u5ae1
I4255
sV\u5ce5
I3511
sV\u7266
I4341
sV\u6beb
I1440
sV\u67f3
I1553
sV\u8574
I2004
sV\u5a76
I4542
sV\u75ff
I3596
sV\u8c05
I2485
sV\u601d
I658
sV\u5ba0
I2165
sV\u98a2
I4068
sV\u7629
I3678
sV\u8d2f
I1413
sV\u60b2
I1466
sV\u8bc0
I2607
sV\u8dc4
I5396
sV\u7b4b
I2205
sV\u7be0
I5213
sV\u5167
I4830
sV\u9669
I375
sV\u5ff8
I4273
sV\u96fe
I1993
sV\u6f02
I1676
sV\u9a8f
I2146
sV\u9093
I1799
sV\u5395
I2163
sV\u78a3
I4021
sV\u5f22
I4951
sV\u532a
I2596
sV\u6234
I1348
sV\u5eb7
I691
sV\u7838
I2336
sV\u54bb
I4497
sV\u52bf
I265
sV\u6bc5
I1717
sV\u5e4c
I3389
sV<eos>
p2
I0
sV\u5450
I2679
sV\u9752
I645
sV\u5254
I2352
sV\u82df
I3314
sV\u5de1
I1771
sV\u7f62
I2075
sV\u5be5
I2455
sV\u8e6c
I4048
sV\u60f3
I256
sV\u7ef7
I2582
sV\u5b7a
I4548
sV\u6a84
I3992
sV\u8109
I1671
sV\u7e8c
I5232
sV\u9511
I5464
sV\u7490
I3174
sV\u671d
I885
sV\u7b25
I5200
sV\u50a8
I902
sV\u8033
I1128
sV\u5939
I2121
sV\u6843
I1816
sV\u94d0
I4758
sV\u68d8
I2669
sV\u66dc
I4308
sV\u9169
I4434
sV\u70e8
I3169
sV\u6f6d
I1936
sV\u4eec
I32
sV\u777d
I3878
sV\u8983
I3317
sV\u620a
I4572
sV\u659b
I5001
sV\u871c
I1972
sV\u77a7
I2887
sV\u5426
I570
sV\u5fb7
I408
sV\u55bb
I2088
sV\u96bd
I3497
sV\u773c
I665
sV\u53bf
I880
sV\u8e42
I4742
sV\u8446
I3069
sV\u7ecd
I792
sV\u5550
I4855
sV\u8fd7
I5419
sV\u5ce1
I1707
sV\u97e7
I2348
sV\u6deb
I3134
sV\u8f6c
I382
sV\u6bef
I2514
sV\u5a7a
I4254
sV\u8c01
I897
sV\u6b84
I4603
sV\u9e0d
I5569
sV\u7f8c
I2396
sV\u9411
I5450
sV\u661d
I5010
sV\u5ba4
I723
sV\u94a6
I2612
sV\u8d2b
I1711
sV\u4e2d
I7
sV\u9f37
I5588
sV\u953b
I2072
sV\u8bc4
I544
sV\u7b4f
I3891
sV\u8859
I3798
sV\u69d8
I5049
sV\u67dc
I1955
sV\u767d
I617
sV\u5195
I2305
sV\u8a18
I5359
sV\u609f
I2250
sV\u9e20
I4785
sV\u74a7
I3352
sV\u4eab
I846
sV\u512a
I4829
sV\u5cb7
I3162
sV\u743c
I2082
sV\u8d42
I3227
sV\u63c9
I3518
sV\u814a
I1761
sV\u5c4c
I4551
sV\u71d5
I1515
sV\u86db
I3147
sV\u695a
I1191
sV\u635e
I2752
sV\u5fe1
I2910
sV\u59e5
I3569
sV\u94e7
I5461
sV\u7766
I3139
sV\u53e9
I4079
sV\u62f3
I1872
sV\u9a78
I5530
sV\u6e80
I5085
sV\u8309
I3694
sV\u9711
I5501
sV\u7094
I4627
sV\u8f96
I2118
sV\u839e
I1850
sV\u5ea0
I4267
sV\u7329
I2956
sV\u52a8
I73
sV\u963b
I1379
sV\u79ba
I2723
sV\u6447
I1626
sV\u82c8
I5284
sV\u9ccc
I2768
sV\u9965
I2674
sV\u6175
I3845
sV\u7b79
I1053
sV\u54fc
I4239
sV\u8587
I2213
sV\u6606
I1430
sV\u9f8b
I4794
sV\u998f
I3943
sV\u7a0e
I759
sV\u4e16
I334
sV\u9f20
I2160
sV\u502a
I2350
sV\u86b1
I5326
sV\u94bd
I5455
sV\u6ec1
I4620
sV\u68c5
I5039
sV\u62c9
I454
sV\u804a
I1718
sV\u5d4c
I2777
sV\u76d1
I521
sV\u5750
I1042
sV\u5154
I3007
sV\u8dd7
I5398
sV\u6e56
I633
sV\u8174
I4383
sV\u5e76
I154
sV\u6984
I2654
sV\u6388
I1043
sV\u5f0b
I3440
sV\u590f
I944
sV\u9611
I4062
sV\u7194
I3671
sV\u9ca2
I4782
sV\u7825
I3466
sV\u59a4
I4537
sV\u53a8
I1537
sV\u90aa
I2610
sV\u7eb6
I2890
sV\u78ba
I5182
sV\u89c4
I190
sV\u54d2
I4851
sV\u6bd8
I5060
sV\u7fe0
I1829
sV\u5b63
I719
sV\u79e4
I3782
sV\u5567
I3956
sV\u6c6d
I4321
sV\u7a79
I3686
sV\u5bf8
I1943
sV\u5785
I4887
sV\u9a87
I3817
sV\u808b
I2639
sV\u9418
I5451
sV\u789b
I5181
sV\u8c28
I1443
sV\u4f2a
I2141
sV\u722c
I2057
sV\u7830
I5172
sV\u5cb3
I1922
sV\u8bbd
I2727
sV\u4ebf
I1268
sV\u5c48
I1921
sV\u63cd
I4580
sV\u4e54
I1665
sV\u5bdd
I3198
sV\u9edf
I5586
sV\u6362
I750
sV\u8ae7
I5365
sV\u70eb
I2671
sV\u76ef
I2238
sV\u62f7
I3253
sV\u7080
I3866
sV\u5403
I849
sV\u7684
I1
sV\u5a07
I2122
sV\u8f15
I5412
sV\u75ae
I3213
sV\u5931
I517
sV\u8237
I4177
sV\u61b6
I4571
sV\u53c2
I441
sV\u96c4
I1114
sV\u59c6
I1285
sV\u604b
I1457
sV\u664f
I2545
sV\u7adc
I5196
sV\u60e0
I947
sV\u8765
I5334
sV\u6ce8
I389
sV\u95ee
I183
sV\u58f0
I643
sV\u4e95
I1590
sV\u9518
I5466
sV\u8d28
I315
sV\u4e2a
I17
sV\u57af
I4889
sV\u7f34
I1479
sV\u6538
I4302
sV\u4fbf
I520
sV\u70c1
I2985
sV\u5140
I3728
sV\u76c5
I4358
sV\u9e4a
I4073
sV\u62cd
I711
sV\u6ed5
I1856
sV\u8be7
I3419
sV\u6866
I2914
sV\u9970
I1063
sV\u9001
I875
sV\u9605
I1571
sV\u7784
I2500
sV\u820d
I1518
sV\u638c
I1194
sV\u6f94
I5096
sV\u5598
I2556
sV\u5b9c
I972
sV\u6021
I1764
sV\u6625
I845
sV\u6c29
I5063
sV\u5831
I4895
sV\u6cbe
I2683
sV\u5eca
I1954
sV\u83cc
I1786
sV\u674f
I2526
sV\u6d53
I1410
sV\u8fd4
I1471
sV\u5357
I241
sV\u75d8
I2603
sV\u53ec
I1224
sV\u94ee
I3494
sV\u80f6
I1613
sV\u6479
I3986
sV\u9887
I1415
sV\u7b06
I4025
sV\u5f89
I4271
sV\u828b
I3905
sV\u7d0a
I2926
sV\u6912
I2917
sV\u5316
I114
sV\u7c9f
I4027
sV\u8424
I4033
sV\u68a7
I2915
sV\u52ab
I2389
sV\u54af
I3635
sV\u683c
I160
sV\u75c5
I625
sV\u874e
I3702
sV\u90d7
I5432
sV\u59dd
I3744
sV\u9cdf
I5561
sV\u6162
I980
sV\u6b66
I800
sV\u4fe9
I2056
sV\u6d6a
I1086
sV\u74ef
I4014
sV\u9a70
I1485
sV\u7ef3
I2550
sV\u7280
I2955
sV\u9505
I2008
sV\u5807
I4529
sV\u810d
I4379
sV\u6a90
I2952
sV\u4e13
I320
sV\u7719
I5168
sV\u6321
I1591
sV\u6525
I3851
sV\u6f29
I3056
sV\u4ea8
I2045
sV\u9e33
I3623
sV\u8037
I4375
sV\u94c4
I5457
sV\u7847
I5174
sV\u5bc6
I766
sV\u624b
I166
sV\u80cc
I831
sV\u9759
I985
sV\u76d8
I377
sV\u8361
I1219
sV\u8f69
I2077
sV\u6ee8
I1351
sV\u7b71
I3892
sV\u858f
I3913
sV\u660e
I164
sV\u8f93
I901
sV\u7d9f
I5228
sV\u67a3
I2845
sV\u69a7
I4597
sV\u5fb3
I4564
sV\u9042
I2728
sV\u5544
I4504
sV\u864e
I1132
sV\u6cd5
I144
sV\u745a
I3211
sV\u6062
I1020
sV\u6c6a
I1909
sV\u916c
I2027
sV\u4e7e
I2675
sV\u5703
I3385
sV\u5907
I367
sV\u800d
I2537
sV\u8c15
I5376
sV\u7619
I3536
sV\u949a
I5453
sV\u781d
I3409
sV\u80a2
I2295
sV\u6425
I4986
sV\u6e29
I739
sV\u4fa8
I1788
sV\u502d
I4477
sV\u952f
I3234
sV\u76ae
I873
sV\u5a31
I1212
sV\u64ba
I4995
sV\u8d3f
I2585
sV\u634b
I4575
sV\u654f
I1258
sV\u5b5b
I4916
sV\u8e69
I4425
sV\u706d
I1636
sV\u7a71
I5194
sV\u5bf0
I3438
sV\u5df4
I660
sV\u9083
I3319
sV\u5385
I950
sV\u848b
I1774
sV\u828f
I5281
sV\u8893
I5344
sV\u7a9f
I2889
sV\u60a3
I1100
sV\u6ea7
I4332
sV\u54ab
I2771
sV\u97ad
I2812
sV\u6038
I4965
sV\u8fbd
I1736
sV\u6e3c
I5084
sV\u5440
I2177
sV\u73c5
I3771
sV\u79c9
I2359
sV\u67cd
I5027
sV\u6dd1
I2377
sV\u6bd5
I1079
sV\u5fdd
I4566
sV\u795e
I611
sV\u6d66
I1459
sV\u6b6a
I3018
sV\u516e
I3077
sV\u9a74
I3240
sV\u6cfb
I2462
sV\u8e7c
I5409
sV\u9501
I1342
sV\u7480
I3173
sV\u7284
I5118
sV\u870d
I4185
sV\u6c90
I2880
sV\u7119
I4632
sV\u7f1d
I1985
sV\u5e9c
I374
sV\u87a2
I5337
sV\u6325
I823
sV\u8baa
I4039
sV\u572d
I3082
sV\u7fb2
I4373
sV\u63ba
I3582
sV\u4f3d
I2693
sV\u94c0
I3716
sV\u57c2
I4891
sV\u6853
I3521
sV\u5657
I4873
sV\u70d8
I3669
sV\u7edc
I776
sV\u8365
I5294
sV\u5cf0
I963
sV\u7b75
I4675
sV\u5481
I4496
sV\u9f87
I4793
sV\u5889
I3962
sV\u600e
I732
sV\u521a
I636
sV\u581e
I4894
sV\u6fa7
I4625
sV\u59b3
I4252
sV\u9642
I3718
sV\u5948
I1722
sV\u8e52
I4192
sV\u81e3
I2191
sV\u75eb
I4353
sV\u5e72
I685
sV\u6dfb
I1514
sV\u8f7c
I3708
sV\u7384
I2482
sV\u7988
I5192
sV\u8c11
I5374
sV\u5f9c
I4272
sV\u6421
I4295
sV\u86a2
I5322
sV\u6225
I4975
sV\u6829
I3341
sV\u952b
I4441
sV\u562d
I4870
sV\u70ae
I1937
sV\u5c31
I53
sV\u7eb2
I1901
sV\u8737
I4412
sV\u8d3b
I3926
sV\u4e3d
I812
sV\u634f
I3014
sV\u5757
I652
sV\u5b5f
I1865
sV\u8461
I1272
sV\u65e0
I204
sV\u8869
I5342
sV\u88fe
I4726
sV\u9283
I5443
sV\u5185
I98
sV\u9c87
I5550
sV\u7f06
I2385
sV\u5b89
I227
sV\u630e
I3981
sV\u8a93
I2540
sV\u6d12
I2171
sV\u789f
I2483
sV\u6ca7
I2579
sV\u4f26
I1198
sV\u742c
I5134
sV\u5ab3
I3335
sV\u7834
I682
sV\u83b9
I2438
sV\u9542
I3937
sV\u6fd1
I4336
sV\u4e50
I443
sV\u94d7
I5458
sV\u53d9
I2454
sV\u9edb
I2571
sV\u5ddd
I607
sV\u98df
I674
sV\u82e3
I4388
sV\u6562
I1283
sV\u6f66
I4334
sV\u70ef
I2620
sV\u9e70
I2140
sV\u9701
I3720
sV\u5203
I2524
sV\u7a88
I4669
sV\u6e90
I326
sV\u919a
I3713
sV\u902f
I5423
sV\u73ae
I2275
sV\u5f31
I945
sV\u67b6
I1129
sV\u96c0
I2418
sV\u90c4
I5430
sV\u5fc6
I1425
sV\u664b
I1570
sV\u59ca
I3244
sV\u88d4
I2673
sV\u5457
I3825
sV\u9d5d
I5565
sV\u7cdc
I3541
sV\u8165
I3219
sV\u81fa
I5276
sV\u8bfe
I1257
sV\u5085
I2078
sV\u818f
I2347
sV\u620e
I3290
sV\u4e91
I819
sV\u8b93
I5369
sV\u7597
I747
sV\u501a
I2731
sV\u63a3
I3984
sV\u6da7
I3588
sV\u57ab
I2147
sV\u752c
I3534
sV\u51af
I1445
sV\u7f30
I4686
sV\u5bb3
I804
sV\u7934
I4022
sV\u82b9
I3604
sV\u6d3c
I2446
sV\u5740
I1293
sV\u5144
I1615
sV\u64cd
I887
sV\u6ed1
I1181
sV\u4f50
I2246
sV\u68d5
I2460
sV\u7656
I3874
sV\u77eb
I2828
sV\u9974
I5519
sV\u65f7
I2945
sV\u9601
I1893
sV\u9005
I3490
sV\u7184
I2780
sV\u5d07
I1522
sV\u840d
I2241
sV\u658c
I1654
sV\u8e11
I5402
sV\u8815
I4037
sV\u6994
I3859
sV\u5398
I2696
sV\u9a9e
I4463
sV\u6025
I771
sV\u542d
I4232
sV\u5835
I1853
sV\u8537
I4708
sV\u54c2
I4850
sV\u8fd0
I156
sV\u67e0
I3092
sV\u6279
I629
sV\u80fa
I3477
sV\u6c7d
I502
sV\u8afe
I5367
sV\u5f85
I675
sV\u5589
I2772
sV\u888b
I1170
sV\u8e8f
I4743
sV\u7a97
I1151
sV\u5916
I121
sV\u6ca3
I4607
sV\u8428
I1085
sV\u54b3
I3009
sV\u6c38
I927
sV\u83bd
I3696
sV\u79c1
I976
sV\u9b42
I2024
sV\u7fc5
I2624
sV\u5e44
I4265
sV\u75c9
I3677
sV\u5448
I1094
sV\u6bcd
I986
sV\u8d4e
I2197
sV\u8352
I1967
sV\u7956
I1516
sV\u7f5a
I1327
sV\u6b62
I765
sV\u9a6c
I476
sV\u7eef
I2661
sV\u66ff
I1136
sV\u5207
I678
sV\u8111
I1054
sV\u8715
I3071
sV\u9996
I213
sV\u9f9a
I2630
sV\u731d
I3210
sV\u8ba2
I953
sV\u4ea4
I153
sV\u81a6
I3602
sV\u982b
I4454
sV\u9e2f
I3725
sV\u73b2
I1644
sV\u803b
I2538
sV\u5bc2
I2049
sV\u9ec4
I647
sV\u7247
I538
sV\u51c6
I371
sV\u68e0
I3399
sV\u6ee4
I2657
sV\u56f4
I622
sV\u898b
I5354
sV\u6212
I1708
sV\u7b97
I603
sV\u5e1a
I3970
sV\u541e
I2443
sV\u6da3
I3255
sV\u63a7
I452
sV\u59ab
I4904
sV\u7b2c
I208
sV\u90b1
I2333
sV\u7130
I2986
sV\u55b3
I3828
sV\u82bd
I2995
sV\u78c1
I2096
sV\u7ec5
I2962
sV\u60d1
I1796
sV\u7856
I5177
sV\u5cd9
I3439
sV\u745e
I825
sV\u4ee5
I28
sV\u9170
I4053
sV\u5272
I1751
sV\u9774
I2810
sV\u837c
I2996
sV\u67ff
I3398
sV\u7980
I3682
sV\u5d03
I3749
sV\u4f0f
I1740
sV\u6190
I4971
sV\u9896
I1840
sV\u949e
I2899
sV\u6821
I710
sV\u6e25
I4616
sV\u7cae
I1174
sV\u6eba
I3666
sV\u873f
I3224
sV\u5ac2
I3085
sV\u56ca
I1926
sV\u6f4f
I5093
sV\u5b57
I605
sV\u575f
I2404
sV\u8861
I1031
sV\u8469
I3792
sV\u65e8
I1649
sV\u51f0
I1959
sV\u6c79
I3054
sV\u5b81
I857
sV\u8693
I4406
sV\u7897
I2358
sV\u5d1a
I4107
sV\u749f
I3871
sV\u8c24
I4190
sV\u782c
I5171
sV\u7230
I5114
sV\u7434
I1627
sV\u8fb9
I496
sV\u6e38
I333
sV\u5a40
I4539
sV\u7b56
I359
sV\u5fd9
I1397
sV\u51dd
I1721
sV\u94df
I5459
sV\u80e7
I3476
sV\u7cef
I3784
sV\u5e03
I365
sV\u9709
I2379
sV\u7688
I5163
sV\u7f19
I4371
sV\u6b21
I145
sV\u6d25
I1071
sV\u85aa
I1677
sV\u592d
I3285
sV\u7fae
I5250
sV\u9633
I543
sV\u9cc4
I2791
sV\u4fce
I4815
sV\u6653
I1048
sV\u7ed8
I1884
sV\u915d
I2315
sV\u796d
I2288
sV\u58ec
I4900
sV\u8dfa
I5400
sV\u87fe
I3919
sV\u7802
I2378
sV\u9187
I2119
sV\u7206
I1141
sV\u6e0e
I3530
sV\u6012
I1845
sV\u739b
I1668
sV\u5c1a
I749
sV\u759f
I3595
sV\u8d24
I1986
sV\u61a7
I2842
sV\u5bab
I1357
sV\u94b5
I3322
sV\u80bd
I3600
sV\u5b40
I4257
sV\u7cc5
I4163
sV\u68cd
I3094
sV\u8052
I4690
sV\u6862
I4128
sV\u81e7
I3691
sV\u996c
I4213
sV\u77f3
I475
sV\u5072
I4826
sV\u817c
I3901
sV\u7b80
I818
sV\u5f03
I1240
sV\u6390
I3651
sV\u5f98
I2909
sV\u519c
I596
sV\u6a21
I457
sV\u82a6
I2517
sV\u5435
I2510
sV\u4e39
I1270
sV\u6d4f
I2371
sV\u4ece
I140
sV\u5957
I567
sV\u7fd8
I2502
sV\u4f63
I2401
sV\u6de4
I3403
sV\u59ec
I2651
sV\u53f0
I343
sV\u4ff8
I4475
sV\u5b85
I555
sV\u5189
I3078
sV\u4f8d
I3560
sV\u690e
I2916
sV\u5d16
I2599
sV\u961c
I2591
sV\u66a7
I3397
sV\u5cab
I4927
sV\u7430
I3773
sV\u50b3
I4828
sV\u6838
I708
sV\u663c
I2978
sV\u5c40
I319
sV\u4e4c
I1612
sV\u94db
I4057
sV\u7b5a
I5205
sV\u715e
I2954
sV\u88e3
I5347
sV\u6f62
I3097
sV\u6566
I1815
sV\u7aef
I797
sV\u9274
I1330
sV\u62ff
I770
sV\u5803
I4098
sV\u7a84
I2047
sV\u8511
I3911
sV\u5f2d
I4952
sV\u5531
I650
sV\u61be
I1861
sV\u9cc0
I5557
sV\u53ca
I168
sV\u82d4
I3313
sV\u545b
I4233
sV\u8d61
I4423
sV\u6ce0
I4608
sV\u8169
I3544
sV\u60e8
I1739
sV\u6979
I4316
sV\u8bfa
I921
sV\u5c81
I1556
sV\u7406
I56
sV\u8d8b
I779
sV\u680e
I5029
sV\u5c16
I1659
sV\u971c
I2087
sV\u739f
I3458
sV\u4e22
I1869
sV\u94b1
I594
sV\u7530
I911
sV\u51b3
I339
sV\u7334
I2717
sV\u9e42
I3946
sV\u5b44
I4545
sV\u5148
I287
sV\u705e
I3057
sV\u89e3
I273
sV\u626a
I4573
sV\u9570
I4445
sV\u9009
I310
sV\u6590
I3091
sV\u5998
I4903
sV\u9a9a
I2349
sV\u6c21
I4137
sV\u6029
I4276
sV\u82aa
I4387
sV\u5e2d
I768
sV\u5431
I4843
sV\u853b
I4709
sV\u7747
I3538
sV\u54c6
I4498
sV\u6d4b
I758
sV\u85d0
I4402
sV\u5f57
I4269
sV\u79d8
I1148
sV\u77dc
I4018
sV\u8c61
I478
sV\u8069
I5259
sV\u96f2
I4771
sV\u7275
I1621
sV\u5f81
I794
sV\u5389
I1776
sV\u710a
I3170
sV\u6512
I2778
sV\u7c97
I1731
sV\u591a
I41
sV\u52b3
I987
sV\u8bb9
I5370
sV\u7fc1
I2337
sV\u73c9
I4644
sV\u914a
I4433
sV\u67d1
I4310
sV\u9cd7
I4783
sV\u795a
I4666
sV\u55dd
I4864
sV\u4fe1
I167
sV\u7eeb
I4369
sV\u9670
I5489
sV\u9074
I3932
sV\u5a03
I1513
sV\u4e0b
I58
sV\u6c8c
I3660
sV\u6094
I2193
sV\u7b19
I4159
sV\u9e2b
I5573
sV\u5d2d
I2652
sV\u75b2
I1557
sV\u8c37
I1232
sV\u803f
I2583
sV\u6253
I323
sV\u955d
I5471
sV\u74dc
I1945
sV\u62e8
I1667
sV\u56f0
I891
sV\u95f2
I1153
sV\u6b79
I3760
sV\u5885
I918
sV\u8393
I3267
sV\u5e16
I2101
sV\u719f
I866
sV\u65a7
I2944
sV\u8328
I1512
sV\u90b5
I2113
sV\u84bd
I5308
sV\u78c5
I2990
sV\u5944
I4535
sV\u9646
I867
sV\u5348
I971
sV\u904a
I5425
sV\u60d5
I2309
sV\u785a
I4019
sV\u54dd
I4499
sV\u4ee1
I4805
sV\u8be3
I4418
sV\u6666
I3854
sV\u606a
I3515
sV\u79ef
I463
sV\u6df7
I1243
sV\u61ff
I3249
sV\u7984
I3101
sV\u5507
I2327
sV\u8c0d
I2762
sV\u6d8c
I1527
sV\u8611
I3547
sV\u6790
I720
sV\u8015
I1948
sV\u6194
I4117
sV\u5b98
I821
sV\u989a
I4210
sV\u559c
I737
sV\u6e21
I1472
sV\u4fa0
I2098
sV\u80aa
I2253
sV\u5631
I2632
sV\u8d37
I466
sV\u6eb6
I2463
sV\u873b
I4413
sV\u8dcc
I563
sV\u575b
I988
sV\u6fe0
I4001
sV\u8865
I692
sV\u94f2
I2787
sV\u7075
I990
sV\u6483
I4990
sV\u8302
I1747
sV\u768f
I5164
sV\u94a3
I4202
sV\u7624
I2232
sV\u9aa7
I5535
sV\u822c
I858
sV\u75b9
I2923
sV\u573a
I29
sV\u6342
I2844
sV\u7b52
I2529
sV\u62d7
I3847
sV\u6edf
I5091
sV\u8d5e
I1313
sV\u74e3
I3138
sV\u5664
I4875
sV\u80eb
I4376
sV\u626c
I1112
sV\u6101
I2381
sV\u9890
I2174
sV\u7f15
I3216
sV\u679a
I2228
sV\u4e1f
I4795
sV\u6d9e
I4325
sV\u662f
I3
sV\u85ae
I4710
sV\u8bb2
I642
sV\u7237
I2168
sV\u54b8
I2325
sV\u783b
I5173
sV\u6cc8
I5071
sV\u5951
I1563
sV\u78d0
I3597
sV\u5f55
I886
sV\u6559
I437
sV\u5fea
I4963
sV\u5e7f
I255
sV\u6b87
I3525
sV\u8e0a
I2486
sV\u6518
I3520
sV\u8f9f
I1968
sV\u5ca9
I1752
sV\u832c
I4031
sV\u8930
I4728
sV\u9b3c
I2055
sV\u5c3e
I1319
sV\u80c1
I1579
sV\u6846
I1827
sV\u51cb
I3729
sV\u69db
I1899
sV\u865a
I1246
sV\u75e3
I4149
sV\u5764
I1851
sV\u9e6a
I5581
sV\u8df3
I1185
sV\u4ef5
I4471
sV\u7578
I2922
sV\u7b7c
I4676
sV\u6001
I455
sV\u8180
I2424
sV\u4e8a
I4799
sV\u548e
I3038
sV\u9990
I5521
sV\u5a92
I683
sV\u6096
I3044
sV\u4f1f
I1027
sV\u9021
I5422
sV\u612b
I4283
sV\u7eaa
I753
sV\u672f
I329
sV\u8543
I4181
sV\u67c4
I2949
sV\u914b
I3186
sV\u524d
I55
sV\u5851
I1051
sV\u5e55
I989
sV\u7fd4
I1359
sV\u7061
I5100
sV\u5eea
I4949
sV\u5377
I1278
sV\u9a7d
I5531
sV\u8102
I1709
sV\u4e08
I1800
sV\u970e
I5500
sV\u5c14
I331
sV\u98a7
I4211
sV\u5fa9
I4956
sV\u6db5
I1533
sV\u8c34
I3028
sV\u79bd
I2536
sV\u83c1
I2966
sV\u6b46
I4134
sV\u52cb
I2525
sV\u6d4a
I3662
sV\u91cd
I87
sV\u5ed3
I2862
sV\u5464
I4495
sV\u82eb
I5288
sV\u606c
I3124
sV\u6c74
I4322
sV\u90f7
I5434
sV\u57f9
I977
sV\u9afb
I3944
sV\u787c
I4363
sV\u6301
I203
sV\u6f09
I4622
sV\u7b11
I991
sV\u9a90
I3075
sV\u5992
I3510
sV\u6396
I4577
sV\u9525
I3935
sV\u7a3b
I2322
sV\u58bc
I4899
sV\u7c3f
I2868
sV\u514d
I727
sV\u5b51
I4914
sV\u4fde
I2411
sV\u92e0
I5444
sV\u7565
I578
sV\u94e4
I4204
sV\u7f69
I2466
sV\u816d
I4382
sV\u4e73
I1494
sV\u8d75
I1166
sV\u5077
I1756
sV\u997d
I3326
sV\u5c7f
I2905
sV\u738b
I468
sV\u8c0a
I1830
sV\u758f
I1817
sV\u960e
I2505
sV\u5d14
I2283
sV\u8d9f
I2568
sV\u52a1
I125
sV\u97a3
I4772
sV\u7f28
I3265
sV\u8d34
I1030
sV\u5236
I147
sV\u9738
I1987
sV\u6042
I4277
sV\u53cb
I550
sV\u6c4a
I5065
sV\u7852
I3781
sV\u6bdb
I994
sV\u845a
I5305
sV\u5360
I813
sV\u77e3
I3214
sV\u9062
I4427
sV\u5564
I1990
sV\u79e7
I3886
sV\u83eb
I5296
sV\u6d74
I1889
sV\u6405
I2616
sV\u8584
I1554
sV\u8f88
I1793
sV\u918c
I5440
sV\u568e
I4245
sV\u5892
I4898
sV\u6296
I2879
sV\u5723
I1015
sV\u5927
I9
sV\u7aa6
I3307
sV\u9e29
I5571
sV\u632b
I1772
sV\u7caa
I3413
sV\u652f
I386
sV\u6f33
I3258
sV\u94ba
I4757
sV\u9ebe
I3500
sV\u4e49
I595
sV\u954f
I5470
sV\u5c55
I112
sV\u4ede
I4804
sV\u7261
I2987
sV\u5ae6
I4104
sV\u5cea
I2906
sV\u4f73
I860
sV\u5177
I349
sV\u9679
I5490
sV\u987d
I2114
sV\u7efe
I4685
sV\u8702
I2181
sV\u748b
I3675
sV\u560c
I4869
sV\u7893
I5180
sV\u4f9d
I572
sV\u90a3
I270
sV\u53a5
I3733
sV\u7224
I5113
sV\u59a9
I3195
sV\u67ad
I3657
sV\u8c30
I5380
sV\u6bb5
I435
sV\u71b9
I4008
sV\u9038
I1748
sV\u533a
I50
sV\u7fbd
I2030
sV\u6742
I1068
sV\u4ec7
I2281
sV\u6d46
I2335
sV\u89c9
I490
sV\u714e
I2827
sV\u6cdb
I1280
sV\u835a
I4391
sV\u895e
I5352
sV\u9762
I67
sV\u7ee7
I557
sV\u82ef
I2896
sV\u6c70
I1508
sV\u88f3
I3268
sV\u96f7
I888
sV\u51f9
I2744
sV\u7078
I3769
sV\u5ffd
I1487
sV\u8284
I4384
sV\u8888
I5343
sV\u5f92
I2201
sV\u9521
I2009
sV\u5e27
I3642
sV\u622f
I4287
sV\u7a3f
I1824
sV\u64c0
I4299
sV\u62c4
I4119
sV\u574d
I2709
sV\u5b55
I1595
sV\u94e0
I4759
sV\u5de6
I1055
sV\u98e8
I4776
sV\u9179
I5439
sV\u73fa
I3772
sV\u5a7f
I3287
sV\u570c
I4882
sV\u91a3
I4435
sV\u58a9
I2903
sV\u6cb1
I3450
sV\u8d30
I4045
sV\u4e32
I2033
sV\u70b9
I134
sV\u523a
I1223
sV\u7ebd
I1371
sV\u6642
I4305
sV\u96cd
I2664
sV\u59d3
I1120
sV\u4f5c
I57
sV\u885e
I5341
sV\u9662
I370
sV\u5364
I3629
sV\u83ef
I5297
sV\u6401
I2824
sV\u6809
I3757
sV\u8019
I5254
sV\u629a
I2090
sV\u8e1d
I3072
sV\u5f27
I2574
sV\u652b
I4301
sV\u632f
I1307
sV\u80ae
I5262
sV\u8eb2
I2373
sV\u7737
I2989
sV\u5c51
I2839
sV\u5a55
I3436
sV\u6059
I3514
sV\u8fdc
I527
sV\u56e2
I290
sV\u5ce6
I3969
sV\u60ee
I3578
sV\u5777
I3193
sV\u74f6
I1633
sV\u768b
I3537
sV\u540c
I101
sV\u5e10
I1630
sV\u6218
I288
sV\u57a1
I4095
sV\u7620
I4653
sV\u51a5
I3160
sV\u9ca7
I5552
sV\u65ad
I487
sV\u842c
I5302
sV\u8bc9
I713
sV\u50cf
I593
sV\u64d7
I4996
sV\u815a
I5268
sV\u5064
I4825
sV\u996a
I3239
sV\u80ef
I4377
sV\u4ff1
I1226
sV\u94f7
I4760
sV\u53f9
I1813
sV\u5dfd
I4940
sV\u8680
I2643
sV\u7f11
I5242
sV\u9894
I5513
sV\u4e1b
I2491
sV\u8d1d
I1228
sV\u5c27
I2861
sV\u602f
I3575
sV\u7e3b
I5231
sV\u91ba
I4054
sV\u964b
I2766
sV\u904f
I2183
sV\u5955
I2544
sV\u7761
I1461
sV\u8f71
I5414
sV\u77f6
I2329
sV\u5e7b
I1737
sV\u718f
I2684
sV\u5f10
I4950
sV\u8f9b
I1606
sV\u7720
I2150
sV\u50a5
I4224
sV\u7b28
I2484
sV\u64ad
I445
sV\u852c
I2278
sV\u6eb1
I3767
sV\u68b5
I3990
sV\u5636
I3829
sV\u72b9
I1803
sV\u503a
I929
sV\u7cbd
I2048
sV\u57cb
I1902
sV\u51cf
I587
sV\u9ed1
I958
sV\u5bd3
I1110
sV\u65d7
I1003
sV\u6fdb
I3590
sV\u805a
I1087
sV\u69df
I3204
sV\u5760
I2680
sV\u73e3
I5130
sV\u9e66
I4218
sV\u656c
I1542
sV\u95f7
I1963
sV\u6005
I3841
sV\u4e86
I8
sV\u740d
I4347
sV\u9994
I5524
sV\u6696
I1265
sV\u609a
I3577
sV\u8c1d
I5378
sV\u9621
I5485
sV\u5323
I3732
sV\u5d27
I4935
sV\u7ea6
I574
sV\u672b
I1365
sV\u82ae
I3545
sV\u7537
I663
sV\u96b6
I2933
sV\u90ba
I4430
sV\u8343
I3695
sV\u8d47
I5391
sV\u83d8
I4703
sV\u6c5d
I3131
sV\u9be8
I5548
sV\u846d
I4705
sV\u62ee
I3650
sV\u5577
I4509
sV\u9279
I5442
sV\u5f7b
I1338
sV\u6c83
I1651
sV\u8106
I1949
sV\u870a
I4715
sV\u809b
I3599
sV\u92a7
I4055
sV\u7428
I4146
sV\u5f3a
I216
sV\u553e
I3955
sV\u89c1
I506
sV\u8fc5
I956
sV\u85c9
I2807
sV\u91d1
I72
sV\u7352
I4343
sV\u5468
I324
sV\u6070
I1391
sV\u6674
I2188
sV\u53fd
I4491
sV\u6901
I4129
sV\u9a8c
I579
sV\u9694
I1318
sV\u77aa
I3465
sV\u6e2f
I561
sV\u83b2
I1785
sV\u7a37
I4158
sV\u5cb8
I1065
sV\u52bc
I4487
sV\u68c0
I839
sV\u8247
I2076
sV\u9e4f
I1366
sV\u5151
I1720
sV\u76d4
I3355
sV\u6d59
I1303
sV\u4fda
I4474
sV\u82dc
I4700
sV\u94e8
I4058
sV\u6dee
I2211
sV\u8171
I4029
sV\u5a77
I2109
sV\u507b
I4827
sV\u6387
I4291
sV\u9212
I5441
sV\u819b
I3902
sV\u7f24
I2830
sV\u54a9
I3634
sV\u7528
I54
sV\u60b1
I4570
sV\u7cb9
I2124
sV\u543e
I2817
sV\u88c1
I909
sV\u84c9
I2362
sV\u59cb
I418
sV\u5fcf
I3974
sV\u90d1
I1167
sV\u55d3
I3283
sV\u7252
I5116
sV\u96d5
I1897
sV\u6bd7
I2376
sV\u5960
I2063
sV\u5f64
I2456
sV\u966a
I1806
sV\u6170
I1745
sV\u6e05
I495
sV\u8f84
I2853
sV\u7a0d
I1517
sV\u7011
I2701
sV\u7615
I5156
sV\u8c19
I3612
sV\u649e
I1648
sV\u9e25
I3558
sV\u6f2f
I4624
sV\u94be
I2741
sV\u8d43
I3927
sV\u4e45
I931
sV\u83dc
I1214
sV\u95e8
I207
sV\u4f6f
I4472
sV\u6cee
I4324
sV\u517b
I790
sV\u7efa
I5239
sV\u6e83
I2035
sV\u9f0e
I1808
sV\u7693
I2719
sV\u601c
I2575
sV\u5ba1
I762
sV\u7a20
I3888
sV\u57a9
I4527
sV\u69ad
I3129
sV\u8230
I1837
sV\u7fb9
I3217
sV\u903c
I1805
sV\u573e
I1784
sV\u8bc1
I230
sV\u4ec3
I4470
sV\u6942
I4130
sV\u6346
I2713
sV\u4e58
I1118
sV\u62db
I728
sV\u8d5a
I1448
sV\u7ee3
I2300
sV\u70e7
I1604
sV\u5668
I772
sV\u6270
I1439
sV\u86f3
I5330
sV\u51fd
I2198
sV\u707c
I3137
sV\u94ff
I3116
sV\u6709
I5
sV\u988c
I4067
sV\u5192
I1616
sV\u6b96
I2092
sV\u679e
I5023
sV\u6c2f
I2847
sV\u6633
I5012
sV\u7837
I3883
sV\u5eb8
I2170
sV\u723b
I5115
sV\u6cc4
I1828
sV\u66c8
I5019
sV\u5351
I2973
sV\u72d0
I1024
sV\u5555
I4505
sV\u80dc
I661
sV\u53e6
I690
sV\u96e8
I889
sV\u55ea
I4242
sV\u6fee
I4002
sV\u77fe
I5170
sV\u8206
I2125
sV\u9012
I856
sV\u5514
I4084
sV\u7b20
I5199
sV\u7728
I3356
sV\u68ad
I2618
sV\u62b1
I1354
sV\u5a36
I2860
sV\u7eb9
I1992
sV\u5c3a
I1699
sV\u70bd
I3591
sV\u4fc3
I837
sV\u6842
I1543
sV\u644a
I1716
sV\u4f58
I3426
sV\u8c5a
I3149
sV\u865e
I3222
sV\u71e7
I4636
sV\u5768
I4094
sV\u8beb
I3148
sV\u8def
I214
sV\u6574
I234
sV\u8788
I5336
sV\u780d
I2721
sV\u80b2
I556
sV\u9ab6
I5536
sV\u51bc
I4833
sV\u96be
I341
sV\u6dc4
I3452
sV\u5251
I1559
sV\u73d0
I4145
sV\u9753
I2451
sV\u5455
I3381
sV\u75d4
I4352
sV\u8fd8
I84
sV\u54ea
I861
sV\u8475
I3416
sV\u907d
I4750
sV\u76fe
I1284
sV\u6883
I5036
sV\u6687
I2825
sV\u5e0c
I516
sV\u5410
I2307
sV\u5ba5
I3835
sV\u96a7
I2489
sV\u79b9
I2848
sV\u8bc5
I4417
sV\u5ccb
I4930
sV\u794e
I4664
sV\u6ed7
I5090
sV\u8d56
I1408
sV\u62df
I1349
sV\u815e
I5269
sV\u5c60
I2711
sV\u936a
I5445
sV\u4fed
I2837
sV\u6470
I4988
sV\u80f3
I3363
sV\u59f9
I4907
sV\u6d01
I1192
sV\u6109
I2194
sV\u7511
I5143
sV\u5792
I2258
sV\u7315
I3869
sV\u4eac
I177
sV\u6a2f
I5050
sV\u56bc
I3192
sV\u7ecc
I4684
sV\u9053
I200
sV\u5355
I366
sV\u88d8
I3610
sV\u55e6
I4514
sV\u90e8
I74
sV\u53ea
I262
sV\u5e77
I4559
sV\u547b
I4235
sV\u527f
I3563
sV\u8e02
I5401
sV\u6787
I4124
sV\u5510
I1184
sV\u8f97
I3229
sV\u859b
I2143
sV\u5ca1
I4925
sV\u7d20
I530
sV\u50a9
I4479
sV\u62b5
I981
sV\u8334
I5290
sV\u503e
I1361
sV\u6446
I1363
sV\u9ecd
I4789
sV\u5b64
I1666
sV\u5168
I89
sV\u8bef
I1083
sV\u6570
I225
sV\u81f3
I392
sV\u58f9
I2877
sV\u7978
I2239
sV\u95fb
I756
sV\u56fd
I10
sV\u4e82
I4798
sV\u8188
I5270
sV\u9f8c
I5592
sV\u4f17
I436
sV\u7ea2
I592
sV\u4fac
I3376
sV\u88ae
I5345
sV\u9cb6
I5556
sV\u753b
I978
sV\u9aba
I4779
sV\u733f
I3457
sV\u6dc0
I1609
sV\u8747
I3225
sV\u61c8
I2342
sV\u7fcc
I4374
sV\u9b4f
I1637
sV\u54e6
I2326
sV\u8e6d
I3802
sV\u68ee
I1064
sV\u8471
I2831
sV\u66f2
I464
sV\u5f77
I3513
sV\u9879
I205
sV\u557b
I3827
sV\u7afa
I3469
sV\u967d
I4449
sV\u537f
I2745
sV\u4e00
I2
sV\u6487
I3201
sV\u810a
I2467
sV\u9512
I5465
sV\u5014
I3950
sV\u641c
I874
sV\u809f
I5261
sV\u5fa1
I1673
sV\u59a5
I1970
sV\u94a7
I2519
sV\u53a9
I3952
sV\u8c2c
I3367
sV\u593a
I1099
sV\u75bd
I4651
sV\u533e
I3379
sV\u8fc1
I1047
sV\u89c5
I2761
sV\u6746
I1650
sV\u6cd7
I3451
sV\u66db
I5020
sV\u60df
I1976
sV\u835e
I4032
sV\u7ae3
I2068
sV\u916a
I3712
sV\u6670
I1584
sV\u5bf9
I23
sV\u96fb
I5499
sV\u55fd
I3433
sV\u6905
I1714
sV\u8884
I4724
sV\u6309
I554
sV\u9690
I1244
sV\u7115
I2292
sV\u5a23
I3386
sV\u5427
I938
sV\u8bae
I429
sV\u6233
I3754
sV\u62c8
I4977
sV\u7ccc
I5218
sV\u5751
I2367
sV\u76d0
I1750
sV\u6b59
I4600
sV\u655d
I4584
sV\u7f61
I3068
sV\u9ee0
I4791
sV\u5de2
I2039
sV\u7965
I1454
sV\u8d6d
I5393
sV\u567b
I4521
sV\u507f
I1103
sV\u73fe
I5132
sV\u4f00
I4808
sV\u6b83
I3659
sV\u6587
I224
sV\u798f
I679
sV\u7f20
I2360
sV\u52a9
I539
sV\u6cad
I4323
sV\u8d2c
I1701
sV\u6c42
I243
sV\u88c5
I467
sV\u9ccd
I4467
sV\u75e7
I5153
sV\u8feb
I1332
sV\u6770
I1165
sV\u54fd
I3431
sV\u6805
I2736
sV\u5492
I2531
sV\u841d
I2704
sV\u629e
I4976
sV\u9e21
I1642
sV\u5527
I4502
sV\u6f2b
I1297
sV\u84b2
I2566
sV\u5bb8
I3387
sV\u6fc0
I669
sV\u5055
I3562
sV\u4ed6
I49
sV\u6a59
I2434
sV\u8bd8
I5371
sV\u85dc
I4403
sV\u7269
I196
sV\u8671
I5318
sV\u7ef6
I5238
sV\u9a79
I3723
sV\u577b
I4525
sV\u78fa
I3410
sV\u7483
I1655
sV\u6c93
I3133
sV\u4e14
I472
sV\u5599
I4511
sV\u989b
I4455
sV\u5b9d
I726
sV\u9e9f
I2474
sV\u6020
I3441
sV\u6c28
I2562
sV\u552e
I303
sV\u65b9
I51
sV\u8438
I4398
sV\u8a3c
I5360
sV\u89d1
I3483
sV\u72d7
I1956
sV\u5458
I176
sV\u7edf
I354
sV\u8966
I5353
sV\u90eb
I3934
sV\u53ed
I3428
sV\u96ef
I2520
sV\u9cf3
I5563
sV\u5ff5
I601
sV\u82f7
I3692
sV\u6478
I1758
sV\u6a7c
I4318
sV\u9080
I1378
sV\u5382
I730
sV\u5986
I1569
sV\u9c88
I5551
sV\u5f8a
I2908
sV\u6f15
I4623
sV\u5217
I672
sV\u7196
I5107
sV\u9519
I817
sV\u63a2
I1012
sV\u8d29
I2410
sV\u6237
I276
sV\u87ba
I2214
sV\u8dbe
I3110
sV\u5141
I1536
sV\u804b
I3473
sV\u62cc
I3046
sV\u864f
I4405
sV\u4f55
I423
sV\u6ed4
I3257
sV\u7559
I721
sV\u7b5d
I3411
sV\u5dde
I446
sV\u6765
I25
sV\u86e4
I3793
sV\u6d69
I1729
sV\u4fea
I3279
sV\u9971
I1783
sV\u7583
I4649
sV\u618b
I3199
sV\u840e
I1950
sV\u6d93
I3763
sV\u5499
I3632
sV\u7518
I1478
sV\u9f9f
I2730
sV\u6120
I4282
sV\u8ba7
I3705
sV\u542e
I4082
sV\u78b1
I2703
sV\u5a32
I4909
sV\u7eb5
I1647
sV\u64b9
I4994
sV\u90c1
I1687
sV\u96c5
I848
sV\u5bc7
I3437
sV\u9cc9
I5558
sV\u82cd
I2240
sV\u5b5c
I2793
sV\u7fdf
I3218
sV\u8e6a
I5407
sV\u736c
I5128
sV\u6b7c
I3993
sV\u5e8a
I1401
sV\u620d
I3581
sV\u6811
I1059
sV\u8f94
I5418
sV\u5317
I127
sV\u7096
I3349
sV\u5f1f
I1389
sV\u62a2
I1078
sV\u68a6
I996
sV\u8c29
I3613
sV\u6eaa
I1730
sV\u772f
I3780
sV\u94ae
I2645
sV\u5041
I4478
sV\u9b47
I3498
sV\u5c49
I3968
sV\u814b
I3266
sV\u63cc
I4982
sV\u69d0
I3298
sV\u7459
I3774
sV\u95d8
I4206
sV\u56da
I3284
sV\u6c69
I4138
sV\u8de8
I1241
sV\u516b
I769
sV\u4eea
I1156
sV\u576f
I2511
sV\u74ee
I4350
sV\u60f6
I3089
sV\u4f7f
I210
sV\u6cfe
I3168
sV\u5200
I1582
sV\u9102
I2855
sV\u5404
I249
sV\u7887
I5179
sV\u5e08
I491
sV\u8912
I3703
sV\u9097
I4751
sV\u9a9b
I4461
sV\u9c9f
I4781
sV\u86a3
I5323
sV\u4fa9
I4814
sV\u7bb1
I1419
sV\u8638
I3548
sV\u674e
I565
sV\u8bd1
I2059
sV\u4ed3
I1251
sV\u5658
I4518
sV\u7cdf
I2157
sV\u8b66
I903
sV\u51ed
I1328
sV\u7f09
I3598
sV\u808c
I1442
sV\u8c94
I5387
sV\u7396
I3302
sV\u759a
I3777
sV\u7f9e
I2638
sV\u6daa
I3256
sV\u50ac
I2073
sV\u8fbe
I387
sV\u5341
I298
sV\u7ec8
I560
sV\u6cd4
I3994
sV\u53d6
I361
sV\u795d
I1369
sV\u5fde
I4961
sV\u6361
I2864
sV\u77ee
I2621
sV\u5e73
I217
sV\u65fa
I1390
sV\u5300
I2555
sV\u7783
I4658
sV\u9002
I498
sV\u5f08
I2127
sV\u6320
I3048
sV\u4ea9
I2388
sV\u70ad
I1250
sV\u66b9
I4307
sV\u4e3e
I588
sV\u57c3
I1474
sV\u94c5
I2786
sV\u7a46
I1694
sV\u80cd
I4692
sV\u9e5e
I5579
sV\u8a66
I5361
sV\u8c6a
I933
sV\u95ef
I2038
sV\u8bfb
I997
sV\u697c
I271
sV\u7405
I3262
sV\u9f88
I4220
sV\u9619
I4064
sV\u8425
I285
sV\u8e29
I2297
sV\u732b
I1528
sV\u6caa
I1407
sV\u51ac
I1509
sV\u752f
I5144
sV\u5bb0
I2598
sV\u5241
I4484
sV\u73c0
I3061
sV\u5445
I4845
sV\u785d
I2660
sV\u83e0
I3697
sV\u85e4
I2642
sV\u536b
I600
sV\u906d
I1026
sV\u76ee
I88
sV\u9a71
I1641
sV\u8679
I1710
sV\u6893
I2951
sV\u9697
I5492
sV\u5199
I735
sV\u77ad
I4153
sV\u7bb5
I5210
sV\u8038
I2782
sV\u614e
I1329
sV\u8dd1
I974
sV\u8bd5
I664
sV\u76d7
I1877
sV\u9556
I3621
sV\u7adf
I1039
sV\u8d66
I5392
sV\u57ed
I4097
sV\u5df1
I264
sV\u7a74
I2604
sV\u6078
I3976
sV\u5782
I1953
sV\u9888
I1846
sV\u670d
I300
sV\u868c
I3481
sV\u7596
I5149
sV\u9119
I3370
sV\u5a1f
I2282
sV\u8521
I1811
sV\u67a2
I2042
sV\u4e27
I1938
sV\u6da6
I789
sV\u83ba
I3791
sV\u5541
I4854
sV\u72c4
I3171
sV\u5949
I1675
sV\u824f
I5280
sV\u55d6
I4863
sV\u7159
I4634
sV\u88e8
I3316
sV\u526f
I668
sV\u71ee
I5111
sV\u65f6
I37
sV\u8179
I1734
sV\u8f7d
I1200
sV\u9602
I3938
sV\u658b
I3653
sV\u638f
I2458
sV\u7118
I4004
sV\u7f1c
I3688
sV\u6324
I1638
sV\u7cb1
I4367
sV\u8138
I1262
sV\u6ebd
I5087
sV\u94c1
I612
sV\u77d7
I3539
sV\u8662
I5316
sV\u95eb
I2932
sV\u56ed
I316
sV\u776c
I4359
sV\u8dfb
I2785
sV\u4efd
I515
sV\u6f7c
I3136
sV\u8bff
I3800
sV\u9988
I2005
sV\u6c11
I175
sV\u4e92
I793
sV\u9019
I5421
sV\u5d1b
I1915
sV\u6ca6
I2737
sV\u752b
I2758
sV\u90ae
I1388
sV\u5bb4
I2007
sV\u6d3b
I237
sV\u9143
I5435
sV\u834f
I5292
sV\u6bd4
I108
sV\u6869
I2755
sV\u556b
I4857
sV\u536f
I4489
sV\u5973
I352
sV\u5600
I3640
sV\u9502
I3233
sV\u830e
I3907
sV\u4e10
I4221
sV\u9497
I2857
sV\u5d9d
I4938
sV\u6620
I964
sV\u6a28
I3342
sV\u532e
I2695
sV\u9e30
I5574
sV\u8238
I4697
sV\u52c3
I1857
sV\u5cc7
I4261
sV\u85cd
I5315
sV\u634e
I3849
sV\u8fd1
I302
sV\u6d52
I3344
sV\u9756
I2629
sV\u7edb
I4166
sV\u915a
I3711
sV\u62e3
I3252
sV\u8f66
I113
sV\u96eb
I5498
sV\u5ff1
I3574
sV\u7701
I510
sV\u5582
I2938
sV\u598a
I3743
sV\u5417
I822
sV\u5e1b
I4263
sV\u8721
I2627
sV\u762b
I2958
sV\u54ac
I2324
sV\u93ae
I5446
sV\u7a33
I604
sV\u81ba
I3364
sV\u8bbe
I124
sV\u5145
I626
sV\u4f51
I2647
sV\u9cdc
I5560
sV\u5bde
I2444
sV\u6761
I458
sV\u80e4
I5266
sV\u6b69
I4601
sV\u566b
I4519
sV\u956d
I5476
sV\u5a73
I4541
sV\u9975
I3815
sV\u678b
I4125
sV\u4f10
I1607
sV\u6b93
I5058
sV\u8c12
I4735
sV\u6124
I2102
sV\u522e
I2162
sV\u7eb1
I2290
sV\u62b9
I2154
sV\u8338
I3605
sV\u6cbd
I2195
sV\u8d3c
I3109
sV\u96c1
I2472
sV\u90c5
I2692
sV\u624e
I1506
sV\u88d5
I1681
sV\u79df
I616
sV\u63e3
I2865
sV\u8e66
I3272
sV\u97eb
I4774
sV\u54ed
I1870
sV\u6d7c
I5079
sV\u7601
I4151
sV\u5482
I4236
sV\u5e86
I869
sV\u8f90
I2130
sV\u7696
I3680
sV\u5f1b
I3163
sV\u591f
I512
sV\u712f
I4005
sV\u92ae
I4201
sV\u7b33
I5203
sV\u9cb2
I3329
sV\u86b6
I3915
sV\u80ba
I2051
sV\u693f
I3524
sV\u5641
I4871
sV\u5a49
I2615
sV\u7259
I811
sV\u50da
I3427
sV\u87e0
I4721
sV\u8be8
I4419
sV\u72ee
I2231
sV\u5b73
I3834
sV\u9875
I1632
sV\u4f7b
I4813
sV\u60fa
I3579
sV\u9b02
I5543
sV\u7287
I4638
sV\u5408
I90
sV\u6e8f
I5086
sV\u9a97
I1695
sV\u5d99
I4937
sV\u909b
I3710
sV\u4fa5
I3189
sV\u6e24
I2447
sV\u7bad
I1841
sV\u71b1
I5108
sV\u9030
I5424
sV\u9634
I1310
sV\u4f3a
I3188
sV\u52c7
I1220
sV\u8bcd
I1295
sV\u6d4e
I221
sV\u70db
I2659
sV\u525c
I4486
sV\u76df
I1127
sV\u955e
I5472
sV\u6ce3
I2797
sV\u62e7
I3393
sV\u9eef
I2901
sV\u7070
I1802
sV\u627c
I3250
sV\u7901
I3215
sV\u9880
I5511
sV\u7f05
I2893
sV\u5186
I4831
sV\u9488
I919
sV\u8a8c
I5362
sV\u6715
I4588
sV\u7f9a
I3310
sV\u561f
I3040
sV\u67aa
I1908
sV\u7433
I1652
sV\u603b
I248
sV\u78c0
I5183
sV\u7ec4
I279
sV\u74c8
I5140
sV\u586b
I1438
sV\u9171
I2856
sV\u5473
I829
sV\u73f2
I5131
sV\u5f04
I1825
sV\u7387
I403
sV\u9006
I1493
sV\u960a
I4767
sV\u8c0e
I2763
sV\u6593
I3654
sV\u8212
I1121
sV\u919b
I3114
sV\u529d
I2270
sV\u731c
I1910
sV\u8da3
I1162
sV\u4ea5
I3947
sV\u6cb9
I345
sV\u8d38
I865
sV\u4e3a
I12
sV\u62bd
I1417
sV\u94c9
I4056
sV\u4fcf
I2523
sV\u6252
I3649
sV\u5d58
I3336
sV\u535c
I2597
sV\u56f5
I4881
sV\u8bf7
I589
sV\u6d78
I2261
sV\u81fb
I3365
sV\u7801
I1145
sV\u9980
I3941
sV\u9f84
I1345
sV\u7409
I3023
sV\u6615
I2946
sV\u5b17
I4256
sV\u571f
I356
sV\u749e
I5138
sV\u8821
I5339
sV\u60a6
I1576
sV\u9cae
I5554
sV\u51b0
I1205
sV\u7533
I824
sV\u8eba
I2450
sV\u79c0
I912
sV\u5e45
I552
sV\u67d4
I1532
sV\u6861
I5033
sV\u8fe4
I4050
sV\u6469
I1204
sV\u9a6d
I3035
sV\u9675
I1925
sV\u8c79
I2609
sV\u5c04
I982
sV\u5608
I3509
sV\u6c8f
I4139
sV\u9897
I1958
sV\u5f99
I3573
sV\u949f
I1164
sV\u6628
I709
sV\u75b5
I2957
sV\u6fb9
I5097
sV\u7942
I5188
sV\u754a
I5147
sV\u85d5
I3914
sV\u505c
I667
sV\u975e
I250
sV\u60e7
I2089
sV\u786c
I1233
sV\u53f1
I3630
sV\u96f3
I3719
sV\u82fb
I5289
sV\u607c
I2128
sV\u84ff
I4706
sV\u9a80
I5532
sV\u5982
I117
sV\u7d05
I5221
sV\u5386
I547
sV\u7709
I1914
sV\u9688
I5491
sV\u558a
I1843
sV\u690d
I1333
sV\u6311
I1018
sV\u521b
I406
sV\u541f
I2770
sV\u8d25
I1002
sV\u6837
I179
sV\u8bb6
I2470
sV\u8dba
I5395
sV\u9e43
I3425
sV\u9047
I775
sV\u76c8
I995
sV\u62d0
I2015
sV\u9ed8
I1301
sV\u90dc
I3001
sV\u6b61
I5056
sV\u996d
I1135
sV\u5c6f
I2380
sV\u5708
I1023
sV\u6b8b
I1355
sV\u8012
I4028
sV\u9997
I5525
sV\u5e99
I2021
sV\u7f18
I1282
sV\u711c
I5104
sV\u6b20
I1560
sV\u8fa3
I2131
sV\u6728
I992
sV\u5e2e
I484
sV\u9534
I4442
sV\u5fc3
I99
sV\u51c7
I4227
sV\u96c9
I5495
sV\u6e4e
I4329
sV\u82d1
I1245
sV\u6052
I1374
sV\u515c
I2816
sV\u965e
I5487
sV\u8862
I3920
sV\u97f3
I803
sV\u7574
I2602
sV\u6f78
I4142
sV\u85ff
I4404
sV\u4e8e
I42
sV\u6211
I19
sV\u7a96
I3176
sV\u901d
I2427
sV\u68a2
I4314
sV\u8c25
I4737
sV\u7b2b
I4673
sV\u7d2f
I1169
sV\u653f
I135
sV\u7bc0
I5211
sV\u5c45
I381
sV\u69cc
I3446
sV\u8d4f
I1558
sV\u63d0
I131
sV\u5ad6
I4103
sV\u91dc
I3714
sV\u56de
I295
sV\u6a61
I2547
sV\u8be0
I2365
sV\u8de4
I3318
sV\u6669
I4585
sV\u5d6f
I4936
sV\u7eee
I3309
sV\u5773
I3960
sV\u6cfa
I4610
sV\u66fe
I634
sV\u5a04
I2904
sV\u7687
I1337
sV\u9506
I4440
sV\u8712
I3223
sV\u5999
I1524
sV\u949b
I2644
sV\u6028
I1790
sV\u9e2c
I4786
sV\u592e
I680
sV\u75b1
I4016
sV\u9dc1
I5566
sV\u7f42
I5246
sV\u91c9
I3321
sV\u5858
I1933
sV\u565c
I3739
sV\u915e
I5437
sV\u68e3
I4593
sV\u836a
I4393
sV\u9aef
I5541
sV\u7470
I2173
sV\u53f5
I4080
sV\u5f82
I4563
sV\u9a84
I2019
sV\u5586
I3384
sV\u7109
I3670
sV\u541b
I1568
sV\u8d21
I1234
sV\u7c2b
I5217
sV\u63aa
I843
sV\u97b2
I5506
sV\u8bba
I415
sV\u623f
I34
sV\u9647
I3034
sV\u5149
I440
sV\u70c8
I863
sV\u4f4d
I130
sV\u62d4
I1664
sV\u98d8
I1782
sV\u6d61
I5078
sV\u4fe2
I4817
sV\u6b65
I346
sV\u9571
I5477
sV\u5899
I1108
sV\u6b24
I5055
sV\u7ead
I3472
sV\u9530
I3323
sV\u5632
I2665
sV\u684e
I5031
sV\u84d1
I5309
sV\u6652
I2065
sV\u82d5
I4030
sV\u5958
I4536
sV\u75db
I1142
sV\u8ff7
I799
sV\u85fb
I3221
sV\u7c01
I5215
sV\u5486
I3506
sV\u6e0d
I3998
sV\u5f17
I1501
sV\u551b
I4085
sV\u961d
I5484
sV\u6ea2
I1960
sV\u7d2b
I1414
sV\u653b
I815
sV\u80be
I2276
sV\u5c41
I3011
sV\u8d4b
I1862
sV\u4e4d
I3330
sV\u8153
I4381
sV\u6c61
I1266
sV\u8be4
I5372
sV\u6069
I1325
sV\u81e8
I5275
sV\u9e6d
I2935
sV\u5173
I93
sV\u76f2
I1754
sV\u867d
I584
sV\u7a83
I2801
sV\u7487
I3407
sV\u9706
I2646
sV\u5208
I4481
sV\u688f
I5037
sV\u6293
I1255
sV\u5b99
I2633
sV\u559d
I1491
sV\u6e20
I1202
sV\u4f36
I3949
sV\u65bd
I388
sV\u7d42
I5223
sV\u54c7
I3508
sV\u93c9
I5447
sV\u4ecb
I571
sV\u714a
I4633
sV\u87d1
I4720
sV\u81d5
I5273
sV\u76db
I935
sV\u545c
I4234
sV\u70df
I1222
sV\u4e60
I801
sV\u8d62
I1050
sV\u5d82
I4110
sV\u9884
I397
sV\u8c8c
I1575
sV\u6115
I4281
sV\u561b
I2100
sV\u501f
I835
sV\u8925
I3799
sV\u5cac
I4552
sV\u603f
I4966
sV\u5349
I2874
sV\u72c8
I3868
sV\u8e4b
I3929
sV\u6ccc
I2210
sV\u5fd6
I4960
sV\u9ad8
I52
sV\u59da
I1510
sV\u94dc
I1619
sV\u88e4
I2126
sV\u7bee
I1261
sV\u9175
I3231
sV\u5f00
I47
sV\u5904
I307
sV\u9606
I4061
sV\u5308
I3378
sV\u900a
I1787
sV\u751c
I1692
sV\u4ea1
I1396
sV\u6f20
I2094
sV\u6924
I5043
sV\u6328
I2635
sV\u76b1
I2720
sV\u9730
I5503
sV\u4e36
I4796
sV\u853c
I3912
sV\u6452
I3165
sV\u5b58
I442
sV\u77db
I1383
sV\u555c
I4087
sV\u4f60
I228
sV\u65e7
I1044
sV\u806a
I1939
sV\u5ced
I3086
sV\u56f1
I3831
sV\u50f5
I2453
sV\u8df7
I3487
sV\u5c82
I2820
sV\u9984
I4459
sV\u6015
I1158
sV\u789a
I4155
sV\u60aa
I4569
sV\u613f
I695
sV\u9547
I864
sV\u73c8
I4643
sV\u6dcc
I2982
sV\u67d0
I782
sV\u5ed6
I2355
sV\u6865
I795
sV\u6269
I862
sV\u5373
I508
sV\u9075
I1715
sV\u8a79
I2518
sV\u68fa
I3522
sV\u62fe
I2259
sV\u6000
I1133
sV\u8785
I5335
sV\u568f
I3959
sV\u9991
I5522
sV\u8116
I3180
sV\u6599
I486
sV\u871a
I3918
sV\u8d1e
I2567
sV\u5020
I4822
sV\u77a5
I4017
sV\u86af
I4407
sV\u6b32
I1376
sV\u4fb5
I1545
sV\u7136
I136
sV\u773a
I3024
sV\u5bbd
I1052
sV\u76cf
I3354
sV\u6458
I2064
sV\u8bdd
I410
sV\u4edf
I4075
sV\u63ed
I1256
sV\u9176
I3274
sV\u75f9
I3535
sV\u8403
I2725
sV\u6382
I4290
sV\u8a07
I5357
sV\u6986
I2356
sV\u5f15
I434
sV\u53a2
I1795
sV\u9ca8
I3557
sV\u5faa
I1465
sV\u62ac
I1753
sV\u68b0
I1458
sV\u6eb4
I3346
sV\u5237
I1696
sV\u9539
I3936
sV\u83c2
I5295
sV\u89c6
I394
sV\u6d49
I4612
sV\u7f55
I1929
sV\u67da
I4590
sV\u6dde
I3864
sV\u79e6
I1610
sV\u5d69
I3087
sV\u606b
I4968
sV\u666f
I393
sV\u51f6
I2256
sV\u94f8
I2428
sV\u57fa
I173
sV\u5dfe
I2341
sV\u9891
I906
sV\u7f14
I2662
sV\u9e2a
I5572
sV\u87af
I4719
sV\u8db3
I379
sV\u4eb5
I3948
sV\u65c3
I5004
sV\u8d48
I1962
sV\u4fdf
I4816
sV\u90e1
I2243
sV\u55e3
I3737
sV\u7d68
I5227
sV\u62ed
I3013
sV\u68f1
I3016
sV\u5578
I2733
sV\u7afd
I5197
sV\u6886
I3989
sV\u520d
I4482
sV\u970f
I4065
sV\u5811
I4530
sV\u7a92
I3305
sV\u5e15
I1573
sV\u63ac
I3755
sV\u8e35
I3150
sV\u75b8
I4650
sV\u6041
I4967
sV\u88c6
I4725
sV\u6c49
I920
sV\u724d
I4637
sV\u53cc
I540
sV\u94ce
I3809
sV\u59d0
I1288
sV\u6cde
I3661
sV\u7eea
I1441
sV\u676f
I788
sV\u95f8
I2471
sV\u56fa
I1006
sV\u8585
I5314
sV\u8f89
I1273
sV\u918d
I3807
sV\u548f
I2391
sV\u5e93
I1082
sV\u851a
I2302
sV\u5220
I2937
sV\u9122
I4051
sV\u7fa9
I5249
sV\u753a
I3776
sV\u8e48
I1998
sV\u574e
I2011
sV\u7ed3
I268
sV\u685c
I4592
sV\u7260
I5117
sV\u56e3
I4878
sV\u7464
I4646
sV\u79fd
I3684
sV\u6182
I4970
sV\u6b86
I3447
sV\u778e
I3464
sV\u889c
I2929
sV\u6c1f
I3527
sV\u51a2
I4832
sV\u7827
I4361
sV\u5ba6
I3967
sV\u60ac
I1505
sV\u8d35
I940
sV\u9739
I3721
sV\u5c3f
I1839
sV\u81c2
I2111
sV\u6545
I828
sV\u8bc6
I637
sV\u7b51
I497
sV\u7d55
I5226
sV\u5361
I656
sV\u9663
I5488
sV\u5565
I2543
sV\u5f69
I785
sV\u626b
I1834
sV\u53f6
I1380
sV\u5ffe
I4567
sV\u538b
I549
sV\u9a91
I1952
sV\u8e1e
I3616
sV\u5320
I2769
sV\u9022
I1878
sV\u5524
I2184
sV\u83ab
I1302
sV\u85af
I2997
sV\u7236
I1095
sV\u8340
I4701
sV\u914c
I3152
sV\u564e
I4517
sV\u86d9
I3182
sV\u7360
I5127
sV\u60ed
I3977
sV\u6cf5
I2656
sV\u76f9
I4656
sV\u8703
I3916
sV\u4e09
I142
sV\u500d
I1368
sV\u950f
I3553
sV\u768e
I4356
sV\u5a11
I4101
sV\u9f13
I1107
sV\u5c15
I3837
sV\u61ac
I2843
sV\u6241
I3090
sV\u51cc
I1680
sV\u96ce
I4770
sV\u5bd0
I3747
sV\u98d2
I5514
sV\u62d6
I1436
sV\u64da
I4998
sV\u8d5f
I4046
sV\u6ede
I1760
sV\u7ae6
I4671
sV\u81ec
I4695
sV\u54fa
I3430
sV\u6400
I3339
sV\u8385
I3606
sV\u6808
I3203
sV\u548b
I2974
sV\u978d
I2593
sV\u5893
I2217
sV\u7a14
I5193
sV\u4e1c
I178
sV\u75a1
I3212
sV\u5420
I4231
sV\u73a5
I3303
sV\u5224
I827
sV\u82af
I1940
sV\u5fbd
I1826
sV\u793e
I284
sV\u6ec7
I2480
sV\u964c
I2255
sV\u5f52
I1001
sV\u81d9
I5274
sV\u8fdd
I948
sV\u7460
I5136
sV\u816e
I2965
sV\u6df1
I413
sV\u9576
I2789
sV\u5e7c
I1424
sV\u8003
I317
sV\u6b8a
I1217
sV\u8098
I2894
sV\u6c1b
I1311
sV\u6a1f
I2846
sV\u94a0
I3115
sV\u57a2
I3083
sV\u98a8
I4069
sV\u5baa
I2178
sV\u8d31
I2930
sV\u9139
I4753
sV\u70b8
I1867
sV\u5c3b
I4921
sV\u6345
I3293
sV\u8dc6
I3485
sV\u8bca
I1601
sV\u91ce
I1254
sV\u5ad4
I4544
sV\u65d6
I3852
sV\u63da
I4983
sV\u4f5d
I4811
sV\u5561
I2010
sV\u9063
I2366
sV\u77e2
I2888
sV\u9e67
I5580
sV\u7bea
I4162
sV\u626f
I2412
sV\u90f8
I4199
sV\u7c7b
I489
sV\u7a7f
I1062
sV\u6500
I1583
sV\u558b
I4088
sV\u968d
I4450
sV\u9c91
I4216
sV\u5993
I3122
sV\u7b14
I1007
sV\u5520
I4086
sV\u89b3
I5355
sV\u6e32
I3345
sV\u7436
I3460
sV\u783e
I3140
sV\u8344
I5291
sV\u73cf
I3261
sV\u504e
I3627
sV\u9b54
I1807
sV\u6f5c
I1049
sV\u94e1
I5460
sV\u5fe7
I1247
sV\u7968
I586
sV\u6cf1
I4609
sV\u8e72
I2999
sV\u70f9
I2779
sV\u5178
I820
sV\u7efd
I2690
sV\u5f7c
I1738
sV\u987e
I868
sV\u6682
I1045
sV\u6c86
I5068
sV\u950b
I1041
sV\u708e
I1468
sV\u5c11
I260
sV\u6717
I1188
sV\u6d1b
I1227
sV\u8f9c
I2586
sV\u99a8
I1964
sV\u8c31
I2266
sV\u6bb4
I3449
sV\u9e3d
I2813
sV\u6441
I4296
sV\u90ce
I1868
sV\u9ed2
I5584
sV\u8757
I4718
sV\u8d5b
I193
sV\u4e5d
I870
sV\u9163
I3113
sV\u5265
I2208
sV\u4ef2
I2153
sV\u8bf4
I104
sV\u52fa
I3731
sV\u6600
I3988
sV\u9995
I4214
sV\u7814
I426
sV\u811a
I1034
sV\u6d9d
I2881
sV\u9522
I5468
sV\u7ba9
I4677
sV\u80af
I924
sV\u6d32
I558
sV\u7736
I3175
sV\u9ebb
I1446
sV\u4f46
I105
sV\u534e
I269
sV\u6258
I706
sV\u8ddd
I975
sV\u97e1
I5508
sV\u65ed
I1906
sV\u4e70
I336
sV\u9776
I2811
sV\u960b
I5481
sV\u900f
I736
sV\u5915
I2108
sV\u7c27
I3470
sV\u9aa8
I1360
sV\u59aa
I4538
sV\u64ac
I3202
sV\u7cbc
I3896
sV\u6b49
I2167
sV\u89ca
I4187
sV\u7f51
I226
sV\u8457
I917
sV\u5761
I1326
sV\u75e2
I5151
sV\u5165
I151
sV\u7fe6
I4687
sV\u5b69
I701
sV\u84ec
I2399
sV\u606f
I357
sV\u88f4
I3027
sV\u51fa
I26
sV\u5bfe
I4920
sV\u8681
I3146
sV\u6700
I86
sV\u8a89
I1377
sV\u578b
I257
sV\u5b93
I4259
sV\u9e26
I3036
sV\u622e
I4286
sV\u8bb3
I2584
sV\u6dc7
I2580
sV\u954c
I4762
sV\u524e
I4835
sV\u9f50
I1036
sV\u7bd3
I4678
sV\u6d5c
I3996
sV\u53e3
I344
sV\u7164
I879
sV\u5de7
I1385
sV\u826e
I4178
sV\u4f70
I3375
sV\u68f5
I2320
sV\u9676
I1661
sV\u5378
I2257
sV\u9a7e
I1171
sV\u8303
I542
sV\u6482
I3987
sV\u540d
I229
sV\u9b13
I3818
sV\u7c92
I2044
sV\u5815
I3434
sV\u8398
I3910
sV\u97a0
I3155
sV\u7d27
I559
sV\u5ea6
I119
sV\u65ac
I5003
sV\u8e31
I5405
sV\u69b4
I3445
sV\u6641
I5014
sV\u5fd0
I3644
sV\u7855
I2321
sV\u59d4
I470
sV\u60da
I4279
sV\u895f
I3269
sV\u74e2
I4349
sV\u5065
I638
sV\u7ee6
I5237
sV\u8ff0
I881
sV\u6b73
I4602
sV\u8981
I27
sV\u6800
I4126
sV\u8f85
I1628
sV\u5e8f
I973
sV\u5428
I2476
sV\u88ab
I258
sV\u8eaf
I3488
sV\u6d2e
I5073
sV\u9ab7
I5537
sV\u90bb
I1253
sV\u7f3a
I693
sV\u753e
I5145
sV\u8840
I939
sV\u8e44
I2969
sV\u62c7
I2943
sV\u78cb
I2959
sV\u7ecf
I38
sV\u9050
I3151
sV\u5352
I2875
sV\u5ce3
I4554
sV\u9976
I2790
sV\u8c03
I199
sV\u8207
I5278
sV\u829c
I2895
sV\u661f
I536
sV\u98a0
I2151
sV\u5ba2
I304
sV\u94a8
I3808
sV\u6aac
I3130
sV\u8131
I1213
sV\u66b4
I1010
sV\u563f
I4092
sV\u4ec4
I4801
sV\u81c6
I3478
sV\u5acc
I1854
sV\u56d4
I4523
sV\u686b
I5034
sV\u80f0
I2852
sV\u86f4
I5331
sV\u7a77
I1818
sV\u8881
I1912
sV\u6900
I5041
sV\u8e85
I5410
sV\u9091
I2898
sV\u6c99
I895
sV\u7ea5
I5233
sV\u9026
I4746
sV\u74a9
I5139
sV\u962a
I3495
sV\u6c2e
I3299
sV\u79cb
I1393
sV\u5c4e
I3748
sV\u9150
I5436
sV\u82dd
I5287
sV\u7960
I2960
sV\u5de3
I4939
sV\u94e9
I5462
sV\u8272
I376
sV\u9876
I941
sV\u7292
I4342
sV\u611b
I3648
sV\u4e9a
I399
sV\u839c
I4394
sV\u671f
I115
sV\u4f2f
I1315
sV\u4fc4
I1028
sV\u80c6
I1622
sV\u86ca
I4409
sV\u5bcc
I602
sV\u57d4
I2557
sV\u6eda
I1773
sV\u64de
I4300
sV\u70e6
I1581
sV\u8bec
I4044
sV\u7b77
I3179
sV\u58f6
I3041
sV\u5efa
I85
sV\u777f
I2672
sV\u8d85
I525
sV\u998d
I5520
sV\u780c
I2924
sV\u5693
I4246
sV\u4e18
I2429
sV\u7ba1
I152
sV\u5a20
I3745
sV\u5c24
I884
sV\u77a9
I2117
sV\u51bd
I4226
sV\u94bf
I5456
sV\u7acb
I305
sV\u8fd9
I15
sV\u6e58
I1881
sV\u50e7
I2743
sV\u97e9
I967
sV\u8f6e
I760
sV\u5e78
I1037
sV\u6982
I937
sV\u590d
I485
sV\u7f8e
I170
sV\u6817
I2913
sV\u621b
I2863
sV\u9aa0
I4071
sV\u9ca4
I4217
sV\u53a6
I1140
sV\u8331
I3220
sV\u7eb8
I1176
sV\u523b
I890
sV\u70bc
I1460
sV\u89c2
I259
sV\u6d45
I1888
sV\u6749
I2166
sV\u8857
I718
sV\u4f59
I905
sV\u6dda
I4614
sV\u75ea
I3100
sV\u4fee
I620
sV\u7877
I5178
sV\u5bf6
I4919
sV\u4f83
I2706
sV\u8c85
I5386
sV\u6708
I509
sV\u5b8b
I1503
sV\u988d
I5512
sV\u9495
I4436
sV\u4f18
I384
sV\u8c1a
I3549
sV\u9822
I5509
sV\u7ca5
I3103
sV\u5d24
I4934
sV\u5728
I4
sV\u8bab
I4416
sV\u87b3
I4035
sV\u5eb9
I4948
sV\u763e
I2535
sV\u8d44
I40
sV\u8748
I4717
sV\u6f58
I1382
sV\u7b60
I3263
sV\u9ce5
I5562
sV\u62f1
I2494
sV\u8072
I5260
sV\u9a76
I1259
sV\u70fd
I3454
sV\u517c
I1296
sV\u5211
I2199
sV\u9713
I3236
sV\u7092
I1168
sV\u5415
I1801
sV\u8f98
I4194
sV\u631b
I3394
sV\u819c
I1742
sV\u54aa
I3507
sV\u8231
I2313
sV\u63b0
I3985
sV\u5937
I2236
sV\u7fb8
I3900
sV\u533b
I433
sV\u88c2
I1504
sV\u9ece
I1594
sV\u7455
I2866
sV\u55d4
I4513
sV\u4e59
I1623
sV\u5c65
I1572
sV\u5669
I2876
sV\u4eee
I4807
sV\u83f0
I5298
sV\u6773
I4309
sV\u7977
I3063
sV\u757f
I4351
sV\u56fe
I591
sV\u8d81
I2296
sV\u9f8d
I5593
sV\u7410
I2686
sV\u8d16
I5389
sV\u679d
I2091
sV\u9526
I1195
sV\u5028
I4823
sV\u59b9
I1598
sV\u94bb
I1892
sV\u7b3a
I5204
sV\u9e4c
I4788
sV\u594e
I2249
sV\u4ed7
I2475
sV\u56e7
I4879
sV\u65f1
I2735
sV\u77fd
I4661
sV\u5511
I3954
sV\u7792
I2886
sV\u5315
I3823
sV\u6e17
I2123
sV\u621f
I3392
sV\u7823
I4662
sV\u9aa4
I2139
sV\u90a8
I4197
sV\u64b0
I2406
sV\u8335
I2625
sV\u5e37
I2573
sV\u543b
I2176
sV\u6d41
I335
sV\u8fc2
I3489
sV\u83ca
I2439
sV\u54d0
I4238
sV\u6dd6
I4326
sV\u845b
I2180
sV\u6073
I3390
sV\u5bfa
I1608
sV\u8089
I1210
sV\u6108
I1620
sV\u5b8f
I832
sV\u669d
I4586
sV\u9e22
I5570
sV\u7aa5
I3178
sV\u4ead
I1988
sV\u8baf
I896
sV\u81b3
I3104
sV\u8d40
I5390
sV\u69c3
I5048
sV\u9550
I3372
sV\u5652
I4872
sV\u4fd7
I1531
sV\u88d9
I1951
sV\u675c
I1206
sV\u59e3
I4100
sV\u7168
I4635
sV\u4f6c
I2873
sV\u886e
I4414
sV\u5978
I2940
sV\u628a
I364
sV\u788e
I1966
sV\u5411
I201
sV\u631f
I3047
sV\u52aa
I1069
sV\u8431
I4397
sV\u65b0
I61
sV\u8235
I3144
sV\u533f
I2707
sV\u6c41
I2204
sV\u5fcc
I2040
sV\u98ce
I245
sV\u53d4
I2403
sV\u835f
I3105
sV\u5c61
I1723
sV\u7ee2
I4167
sV\u74e6
I1362
sV\u8389
I1875
sV\u6208
I1662
sV\u5e8b
I4946
sV\u7c0c
I4680
sV\u891a
I3921
sV\u7fa1
I2551
sV\u5824
I2334
sV\u73a9
I1154
sV\u5228
I3504
sV\u8eab
I286
sV\u82b3
I1519
sV\u5bb9
I439
sV\u793a
I218
sV\u55bd
I4512
sV\u733e
I4012
sV\u7ecb
I5235
sV\u9650
I340
sV\u9054
I4749
sV\u8bd9
I4042
sV\u6a58
I2699
sV\u5ae3
I3246
sV\u54e7
I4500
sV\u67f1
I1635
sV\u61f5
I3580
sV\u997a
I3325
sV\u547c
I1061
sV\u4f01
I161
sV\u6d82
I1705
sV\u6c17
I4605
sV\u849c
I2806
sV\u7a23
I3685
sV\u98a4
I3238
sV\u57a6
I2666
sV\u4e2b
I3242
sV\u8d2d
I246
sV\u6cac
I5070
sV\u8731
I5333
sV\u60b4
I4278
sV\u563b
I3738
sV\u4ec0
I422
sV\u87c6
I4036
sV\u6349
I2375
sV\u81ca
I4694
sV\u5965
I253
sV\u86f0
I4184
sV\u6273
I2533
sV\u80f4
I4378
sV\u767b
I883
sV\u707f
I2435
sV\u8e81
I2332
sV\u6308
I4978
sV\u5f8b
I696
sV\u9c8d
I2133
sV\u9095
I5428
sV\u821e
I949
sV\u5f20
I407
sV\u8fab
I3185
sV\u783a
I3884
sV\u54bd
I2614
sV\u8944
I3107
sV\u5452
I4494
sV\u84dd
I1093
sV\u7af9
I1578
sV\u987a
I836
sV\u557c
I3638
sV\u4e01
I1216
sV\u6c82
I3587
sV\u6d17
I1199
sV\u671b
I348
sV\u611f
I292
sV\u9fa0
I5594
sV\u5ca2
I4926
sV\u4f2b
I4222
sV\u8c2d
I1978
sV\u8035
I5257
sV\u75bc
I1918
sV\u513f
I599
sV\u6845
I4591
sV\u86c6
I4408
sV\u6249
I3978
sV\u7c4d
I1544
sV\u68da
I2319
sV\u5269
I1449
sV\u81f4
I503
sV\u5ef6
I914
sV\u52fe
I2323
sV\u9785
I4066
sV\u7604
I5154
sV\u620c
I4285
sV\u8f95
I3709
sV\u6e14
I2172
sV\u7599
I3676
sV\u7b9d
I5207
sV\u5a1c
I1450
sV\u6da9
I2716
sV\u5fb5
I4957
sV\u82b7
I3603
sV\u673a
I103
sV\u6d3e
I1021
sV\u9644
I961
sV\u60cb
I3516
sV\u6cd3
I3343
sV\u6664
I3254
sV\u6c68
I3021
sV\u73ed
I716
sV\u5e74
I81
sV\u6bfd
I4320
sV\u800b
I4689
sV\u7f8a
I1631
sV\u8c13
I1152
sV\u6b92
I5057
sV\u579a
I3832
sV\u9a9c
I4462
sV\u80a0
I1920
sV\u86a4
I5324
sV\u4faa
I4473
sV\u72ac
I2799
sV\u78b0
I1587
sV\u8539
I5312
sV\u64b8
I4993
sV\u7d49
I5224
sV\u634d
I2823
sV\u8bd2
I4733
sV\u4ed4
I1629
sV\u5b5d
I2318
sV\u8463
I725
sV\u706b
I449
sV\u7c73
I852
sV\u6e7f
I1586
sV\u5583
I3639
sV\u9685
I3073
sV\u5b87
I1187
sV\u828d
I3790
sV\u6910
I5042
sV\u6f14
I438
sV\u961a
I3813
sV\u7a9d
I2289
sV\u8222
I4696
sV\u8e2a
I1735
sV\u742e
I5135
sV\u5eb5
I4268
sV\u83b7
I514
sV\u5242
I1367
sV\u7bc7
I1653
sV\u61cb
I4284
sV\u67cf
I1765
sV\u53d7
I189
sV\u7b5c
I4674
sV\u80e1
I1137
sV\u72ed
I2383
sV\u7ef5
I1546
sV\u5c09
I3836
sV\u4e15
I4469
sV\u7317
I4641
sV\u7f1f
I5244
sV\u6b27
I537
sV\u9e35
I3945
sV\u7fb4
I5252
sV\u51c0
I1155
sV\u624d
I419
sV\u6851
I1873
sV\u62e2
I2822
sV\u54ee
I3010
sV\u6377
I1126
sV\u9f89
I5590
sV\u6c14
I373
sV\u5618
I3039
sV\u951a
I3810
sV\u65a5
I2029
sV\u8d2a
I2267
sV\u6f3e
I3668
sV\u9e48
I5576
sV\u5d4a
I4108
sV\u804c
I681
sV\u6ed3
I5089
sV\u83e1
I4704
sV\u8fe9
I3930
sV\u7bf1
I3412
sV\u9972
I2132
sV\u69fd
I2600
sV\u9698
I3939
sV\u989c
I1562
sV\u522b
I280
sV\u70ac
I830
sV\u542f
I968
sV\u9b31
I5545
sV\u7545
I1372
sV\u54c4
I2818
sV\u89d2
I597
sV\u9057
I1016
sV\u4f69
I1431
sV\u4ffe
I4820
sV\u5783
I1777
sV\u9485
I5452
sV\u7504
I2921
sV\u5987
I1411
sV\u7f08
I4370
sV\u7699
I3779
sV\u591c
I1004
sV\u62a1
I4288
sV\u64a5
I4992
sV\u8c2a
I5379
sV\u643a
I1492
sV\u5a46
I1744
sV\u5c4a
I816
sV\u814c
I3788
sV\u65cf
I847
sV\u8d54
I1292
sV\u5bdb
I4918
sV\u795c
I5190
sV\u84e5
I4180
sV\u70ed
I424
sV\u516c
I31
sV\u5b70
I3196
sV\u66f9
I1700
sV\u847a
I4399
sV\u5201
I3079
sV\u7117
I5103
sV\u9798
I4453
sV\u7b1b
I3065
sV\u549a
I2975
sV\u5e9e
I1684
sV\u83a0
I4179
sV\u8fa8
I2338
sV\u71ac
I2416
sV\u552f
I1230
sV\u67b8
I3658
sV\u55c4
I4861
sV\u604d
I3337
sV\u86ce
I5328
sV\u6c55
I2981
sV\u9157
I4200
sV\u5659
I4874
sV\u7ede
I2963
sV\u6cea
I1663
sV\u6177
I2751
sV\u6b7b
I893
sV\u5e87
I4112
sV\u878d
I405
sV\u660c
I1242
sV\u6c10
I4604
sV\u7199
I2190
sV\u5018
I2815
sV\u5e1c
I2493
sV\u8722
I4716
sV\u63a5
I254
sV\u8d26
I1238
sV\u57ad
I4096
sV\u5bb5
I2749
sV\u6536
I235
sV\u633a
I1429
sV\u70c3
I4144
sV\u5742
I3568
sV\u9244
I4754
sV\u7ec7
I751
sV\u56d7
I4877
sV\u6868
I3093
sV\u77ed
I606
sV\u566c
I3740
sV\u916e
I3493
sV\u5a74
I2070
sV\u5501
I4501
sV\u9003
I1566
sV\u5305
I416
sV\u618e
I4116
sV\u8813
I5338
sV\u7617
I5157
sV\u539a
I1098
sV\u599e
I4251
sV\u542b
I1077
sV\u972d
I5502
sV\u60b8
I3391
sV\u54c0
I2164
sV\u7949
I4157
sV\u6d51
I2229
sV\u5f5d
I3840
sV\u67e2
I5028
sV\u6de6
I4327
sV\u6677
I5016
sV\u80f8
I1768
sV\u5f87
I4270
sV\u9889
I4209
sV\u868d
I5320
sV\u7099
I3058
sV\u62a5
I236
sV\u8c26
I2541
sV\u5cb1
I3839
sV\u8bbf
I673
sV\u683e
I3758
sV\u9540
I2788
sV\u71c3
I1175
sV\u65cb
I1759
sV\u5a4a
I4540
sV\u63cf
I1704
sV\u8d50
I2764
sV\u4e52
I2061
sV\u57d7
I4528
sV\u9edd
I4790
sV\u5bdf
I951
sV\u82e5
I1104
sV\u906e
I2159
sV\u60f9
I2405
sV\u827a
I740
sV\u4f7c
I2676
sV\u887e
I4723
sV\u5401
I1832
sV\u7682
I2885
sV\u830f
I4389
sV\u8913
I4727
sV\u5496
I1995
sV\u589e
I233
sV\u6123
I3443
sV\u77ac
I1924
sV\u7bb4
I5209
sV\u80ce
I1657
sV\u8f67
I3111
sV\u97ec
I3237
sV\u6777
I4123
sV\u7600
I4652
sV\u8f91
I954
sV\u6e10
I910
sV\u9716
I3117
sV\u5218
I684
sV\u892a
I3704
sV\u90af
I3112
sV\u732e
I1046
sV\u6b3e
I325
sV\u9640
I2809
sV\u8854
I2144
sV\u54d7
I2572
sV\u6064
I3646
sV\u8be9
I4043
sV\u7ff1
I4171
sV\u8776
I2364
sV\u817a
I2017
sV\u5b09
I3247
sV\u4f11
I942
sV\u9c9c
I1117
sV\u5b9e
I97
sV\u80a4
I1173
sV\u6c27
I1896
sV\u4fa6
I2442
sV\u952d
I3811
sV\u7eb0
I4164
sV\u78b4
I4156
sV\u8339
I2804
sV\u4e3b
I60
sV\u6cbc
I2919
sV\u7741
I2867
sV\u7145
I5105
sV\u7b49
I100
sV\u65e2
I955
sV\u766b
I3679
sV\u94ec
I3002
sV\u706f
I1252
sV\u53ee
I2708
sV\u5df2
I138
sV\u9a89
I5533
sV\u7b08
I3687
sV\u9616
I4063
sV\u901a
I79
sV\u6aa9
I4319
sV\u97ab
I5505
sV\u6636
I4304
sV\u6a3e
I5051
sV\u6bd3
I3526
sV\u9cdd
I4784
sV\u6760
I2202
sV\u80e5
I3475
sV\u556c
I3432
sV\u5f70
I2218
sV\u5974
I2775
sV\u6cfd
I1269
sV\u5601
I4516
sV\u5a09
I4908
sV\u810f
I1798
sV\u4e11
I2175
sV\u7f1b
I5243
sV\u6323
I2050
sV\u4ea6
I1264
sV\u8ba8
I957
sV\u8239
I1320
sV\u63b8
I4579
sV\u94c2
I2488
sV\u51c4
I3332
sV\u4fd0
I3119
sV\u9557
I4763
sV\u76d6
I928
sV\u7ade
I582
sV\u8363
I998
sV\u6ee6
I4141
sV\u776b
I2422
sV\u716f
I5106
sV\u6577
I2495
sV\u9981
I3942
sV\u7800
I4360
sV\u9f85
I5589
sV\u5287
I4837
sV\u9589
I5478
sV\u4e8f
I1306
sV\u8191
I4693
sV\u6614
I2252
sV\u5c18
I1821
sV\u4e24
I165
sV\u65a9
I2251
sV\u94b3
I3715
sV\u653e
I198
sV\u9e44
I5575
sV\u5146
I1973
sV\u68cb
I1690
sV\u574a
I1886
sV\u8654
I3608
sV\u56df
I4524
sV\u6860
I4312
sV\u8fe5
I3030
sV\u85e9
I3145
sV\u6df9
I2420
sV\u63fd
I2285
sV\u857e
I2053
sV\u5509
I3826
sV\u8e0f
I1804
sV\u6d8e
I3997
sV\u6392
I474
sV\u5996
I2431
sV\u701b
I3301
sV\u761f
I3873
sV\u6c23
I5062
sV\u84a8
I5307
sV\u9131
I3806
sV\u8d39
I220
sV\u6cb8
I2273
sV\u62bc
I1317
sV\u7941
I2722
sV\u7f45
I5247
sV\u54c8
I1102
sV\u8dce
I5397
sV\u6151
I2911
sV\u905b
I3931
sV\u965f
I4448
sV\u75de
I4148
sV\u61e6
I3752
sV\u786b
I2448
sV\u5dee
I646
sV\u53f2
I702
sV\u607b
I4114
sV\u4ffa
I3159
sV\u9881
I1597
sV\u7f04
I3897
sV\u9489
I2611
sV\u4f8f
I4078
sV\u8695
I3106
sV\u6714
I2668
sV\u6ea5
I4331
sV\u4f24
I734
sV\u8026
I5255
sV\u64a9
I4297
sV\u8bb7
I3923
sV\u6e3a
I2983
sV\u8150
I1810
sV\u9cd9
I5559
sV\u51db
I3730
sV\u57df
I483
sV\u88e1
I5346
sV\u6960
I2203
sV\u7aed
I2097
sV\u5b6c
I4546
sV\u5170
I648
sV\u62fd
I3848
sV\u5e05
I1177
sV\u5409
I1123
sV\u8513
I2363
sV\u6292
I3200
sV\u5e9a
I3088
sV\u771f
I459
sV\u592b
I746
sV\u7bac
I5208
sV\u5f2f
I1991
sV\u5533
I4241
sV\u9635
I960
sV\u6db8
I4140
sV\u5fc4
I4958
sV\u82d2
I5286
sV\u6655
I2479
sV\u5c59
I4923
sV\u7eda
I2892
sV\u8d63
I3420
sV\u8367
I2805
sV\u60e6
I3442
sV\u677f
I576
sV\u7a00
I1496
sV\u6210
I35
sV\u6414
I4294
sV\u5e18
I2532
sV\u501c
I4223
sV\u971e
I1932
sV\u6ba1
I3448
sV\u7f2e
I2927
sV\u55b5
I3736
sV\u84bf
I3070
sV\u7ec3
I649
sV\u5942
I3742
sV\u9648
I712
sV\u554a
I1433
sV\u884c
I24
sV\u4f4e
I297
sV\u54df
I3636
sV\u8be1
I3226
sV\u4ee3
I252
sV\u6c64
I1618
sV\u6668
I1346
sV\u79ed
I3887
sV\u8c0f
I4734
sV\u6f8e
I2953
sV\u6e23
I2798
sV\u6027
I116
sV\u9535
I3371
sV\u60bc
I2576
sV\u8fce
I916
sV\u6555
I4999
sV\u98ec
I5515
sV\u6877
I5035
sV\u9a81
I4070
sV\u7708
I3877
sV\u888d
I2897
sV\u5f18
I2185
sV\u709d
I4628
sV\u8822
I2663
sV\u6ca5
I3205
sV\u52b1
I1075
sV\u6c3a
I5064
sV\u663e
I350
sV\u6bcb
I3019
sV\u544a
I368
sV\u4e4e
I714
sV\u8350
I1358
sV\u67d3
I1089
sV\u59d7
I2710
sV\u7f58
I4372
sV\u53db
I2509
sV\u90dd
I2587
sV\u715c
I3060
sV\u55df
I4865
sV\u4fe3
I4818
sV\u6768
I926
sV\u9e6e
I5582
sV\u72f1
I2685
sV\u5370
I876
sV\u6ef9
I3589
sV\u8c7a
I5385
sV\u867e
I2968
sV\u5a01
I850
sV\u5c05
I4260
sV\u5609
I959
sV\u8713
I4034
sV\u731b
I1482
sV\u5c9a
I2941
sV\u751f
I45
sV\u6127
I2478
sV\u982d
I5510
sV\u73b0
I43
sV\u5733
I892
sV\u8e39
I4047
sV\u803d
I2964
sV\u6251
I2046
sV\u7ad6
I2623
sV\u62e6
I2000
sV\u95f4
I139
sV\u6977
I3053
sV\u8ff8
I3421
sV\u81fc
I4174
sV\u5883
I421
sV\u9189
I2054
sV\u8f8d
I4049
sV\u6410
I4581
sV\u911e
I3805
sV\u6da1
I2564
sV\u61a9
I3045
sV\u9cab
I5553
sV\u55b1
I4089
sV\u6b3a
I2103
sV\u5546
I78
sV\u534a
I562
sV\u765c
I3875
sV\u52df
I1239
sV\u6c60
I1350
sV\u8be5
I244
sV\u6068
I2192
sV\u996e
I1180
sV\u75f1
I4354
sV\u8d76
I1215
sV\u817e
I1498
sV\u5d01
I4932
sV\u5b05
I3966
sV\u7586
I1890
sV\u8c0b
I1555
sV\u4f0d
I1291
sV\u9898
I184
sV\u741b
I3459
sV\u5b9a
I80
sV\u969c
I807
sV\u6627
I3050
sV\u7eac
I2549
sV\u7d41
I5222
sV\u93ca
I5448
sV\u6f4d
I3259
sV\u89ce
I4188
sV\u6551
I613
sV\u87d2
I3797
sV\u6355
I2260
sV\u575d
I1820
sV\u8863
I1074
sV\u65e6
I1131
sV\u63ea
I3395
sV\u88f8
I2279
sV\u627f
I573
sV\u9c81
I1186
sV\u7d00
I5220
sV\u5983
I2697
sV\u9a85
I3816
sV\u7b04
I4672
sV\u571c
I4883
sV\u901e
I2971
sV\u6ca1
I141
sV\u8e22
I1669
sV\u8426
I3698
sV\u822a
I581
sV\u5ead
I853
sV\u54b1
I1905
sV\u79c3
I3540
sV\u5e42
I4264
sV\u9b44
I2542
sV\u5446
I2069
sV\u6dcb
I2093
sV\u524a
I2062
sV\u6bcf
I453
sV\u8354
I2783
sV\u5fd7
I610
sV\u98d9
I1994
sV\u7958
I5189
sV\u53df
I4230
sV\u6d60
I5077
sV\u6b64
I186
sV\u6168
I2187
sV\u7eed
I293
sV\u5f6c
I2432
sV\u5570
I4507
sV\u9672
I4768
sV\u5374
I541
sV\u5c01
I1157
sV\u7e82
I4682
sV\u5a05
I2748
sV\u9707
I400
sV\u728a
I5119
sV\u4e0d
I6
sV\u8113
I3311
sV\u5c96
I3572
sV\u5a9a
I2477
sV\u4ea2
I3157
sV\u8ba4
I247
sV\u81a8
I1392
sV\u9e2d
I2245
sV\u8839
I5340
sV\u7c41
I2372
sV\u5bc4
I1698
sV\u94c6
I4203
sV\u6e4d
I4328
sV\u7cd6
I1483
sV\u5859
I4896
sV\u955b
I3812
sV\u6ee2
I4000
sV\u64e6
I1934
sV\u58ee
I1507
sV\u9985
I3327
sV\u4e8b
I158
sV\u5a18
I1643
sV\u6fa1
I2658
sV\u8d22
I532
sV\u63a9
I2022
sV\u7b2e
I5202
sV\u7532
I1304
sV\u51b5
I289
sV\u80bf
I1930
sV\u6ecb
I1822
sV\u8c4c
I4739
sV\u8650
I2928
sV\u62d3
I1281
sV\u8054
I274
sV\u56db
I291
sV\u745c
I2263
sV\u83e9
I3607
sV\u5c6c
I4924
sV\u8f76
I3707
sV\u718a
I1370
sV\u949c
I4437
sV\u88a4
I3609
sV\u82a8
I5282
sV\u5e2b
I4942
sV\u853d
I2626
sV\u64bc
I2237
sV\u91ca
I1008
sV\u6751
I640
sV\u6155
I2186
sV\u5b59
I1084
sV\u965b
I5486
sV\u73de
I3594
sV\u4f61
I4812
sV\u5bee
I4106
sV\u55f2
I4243
sV\u90f4
I4432
sV\u4ff6
I4819
sV\u607f
I4568
sV\u7f00
I2829
sV\u5b83
I428
sV\u9885
I3814
sV\u5587
I2939
sV\u4f8b
I698
sV\u6710
I4587
sV\u4f20
I306
sV\u8c22
I907
sV\u802a
I5256
sV\u5cad
I1858
sV\u5c42
I494
sV\u75c7
I1336
sV\u8d4c
I2037
sV\u8154
I2138
sV\u94dd
I1775
sV\u755c
I2499
sV\u88e5
I5348
sV\u6368
I4980
sV\u5d6c
I4557
sV\u9a6e
I4777
sV\u76f1
I5167
sV\u5174
I627
sV\u8e76
I3803
sV\u827e
I1658
sV\u5e01
I745
sV\u9b03
I4465
sV\u7686
I1900
sV\u708a
I3348
sV\u6492
I2433
sV\u5e96
I4560
sV\u529e
I391
sV\u6b23
I1347
sV\u592f
I3194
sV\u9631
I2705
sV\u77b0
I2759
sV\u9035
I4195
sV\u843d
I583
sV\u65bc
I2227
sV\u7e41
I1146
sV\u7845
I2095
sV\u96c6
I223
sV\u53c8
I425
sV\u90ca
I1344
sV\u6055
I3576
sV\u975b
I4451
sV\u915f
I5438
sV\u72de
I4010
sV\u4e61
I1000
sV\u6ce2
I653
sV\u66e6
I2754
sV\u796f
I4023
sV\u54f2
I1996
sV\u6d77
I172
sV\u4ef6
I362
sV\u8bf8
I1312
s.